Archive member included to satisfy reference by file (symbol)

contiki-srf06-cc26xx.a(er-coap-engine.)
                              obj_srf06-cc26xx/res-leds.o (coap_rest_implementation)
contiki-srf06-cc26xx.a(er-coap-transac)
                              contiki-srf06-cc26xx.a(er-coap-engine.) (coap_register_as_transaction_handler)
contiki-srf06-cc26xx.a(er-coap-observe)
                              contiki-srf06-cc26xx.a(er-coap-transac) (coap_remove_observer_by_client)
contiki-srf06-cc26xx.a(er-coap-res-wel)
                              contiki-srf06-cc26xx.a(er-coap-engine.) (res_well_known_core)
contiki-srf06-cc26xx.a(rest-engine.o)
                              obj_srf06-cc26xx/coap-server.o (rest_init_engine)
contiki-srf06-cc26xx.a(mqtt.o)
                              obj_srf06-cc26xx/mqtt-client.o (mqtt_register)
contiki-srf06-cc26xx.a(contiki-main.o)
                              obj_srf06-cc26xx/startup_gcc.o (main)
contiki-srf06-cc26xx.a(sensors.o)
                              cc26xx-web-demo.co (sensors_event)
contiki-srf06-cc26xx.a(leds.o)
                              contiki-srf06-cc26xx.a(contiki-main.o) (leds_init)
contiki-srf06-cc26xx.a(leds-arch.o)
                              contiki-srf06-cc26xx.a(leds.o) (leds_arch_init)
contiki-srf06-cc26xx.a(sensortag-senso)
                              contiki-srf06-cc26xx.a(sensors.o) (sensors_flags)
contiki-srf06-cc26xx.a(bmp-280-sensor.)
                              cc26xx-web-demo.co (bmp_280_sensor)
contiki-srf06-cc26xx.a(tmp-007-sensor.)
                              cc26xx-web-demo.co (tmp_007_sensor)
contiki-srf06-cc26xx.a(opt-3001-sensor)
                              cc26xx-web-demo.co (opt_3001_sensor)
contiki-srf06-cc26xx.a(hdc-1000-sensor)
                              cc26xx-web-demo.co (hdc_1000_sensor)
contiki-srf06-cc26xx.a(mpu-9250-sensor)
                              cc26xx-web-demo.co (mpu_9250_sensor)
contiki-srf06-cc26xx.a(button-sensor.o)
                              contiki-srf06-cc26xx.a(sensortag-senso) (button_right_sensor)
contiki-srf06-cc26xx.a(reed-relay.o)
                              cc26xx-web-demo.co (reed_relay_sensor)
contiki-srf06-cc26xx.a(ext-flash.o)
                              cc26xx-web-demo.co (ext_flash_open)
contiki-srf06-cc26xx.a(buzzer.o)
                              obj_srf06-cc26xx/mqtt-client.o (buzzer_start)
contiki-srf06-cc26xx.a(board.o)
                              contiki-srf06-cc26xx.a(contiki-main.o) (board_init)
contiki-srf06-cc26xx.a(board-spi.o)
                              contiki-srf06-cc26xx.a(ext-flash.o) (board_spi_write)
contiki-srf06-cc26xx.a(board-i2c.o)
                              contiki-srf06-cc26xx.a(board.o) (board_i2c_wakeup)
contiki-srf06-cc26xx.a(clock.o)
                              contiki-srf06-cc26xx.a(contiki-main.o) (clock_init)
contiki-srf06-cc26xx.a(rtimer-arch.o)
                              contiki-srf06-cc26xx.a(mpu-9250-sensor) (rtimer_arch_now)
contiki-srf06-cc26xx.a(soc-rtc.o)
                              contiki-srf06-cc26xx.a(contiki-main.o) (soc_rtc_init)
contiki-srf06-cc26xx.a(contiki-watchdo)
                              contiki-srf06-cc26xx.a(contiki-main.o) (watchdog_init)
contiki-srf06-cc26xx.a(putchar.o)
                              contiki-srf06-cc26xx.a(contiki-main.o) (putchar)
contiki-srf06-cc26xx.a(ieee-addr.o)
                              contiki-srf06-cc26xx.a(contiki-main.o) (ieee_addr_cpy_to)
contiki-srf06-cc26xx.a(batmon-sensor.o)
                              cc26xx-web-demo.co (batmon_sensor)
contiki-srf06-cc26xx.a(cc26xx-uart.o)
                              contiki-srf06-cc26xx.a(contiki-main.o) (cc26xx_uart_init)
contiki-srf06-cc26xx.a(lpm.o)
                              contiki-srf06-cc26xx.a(button-sensor.o) (lpm_shutdown)
contiki-srf06-cc26xx.a(gpio-interrupt.)
                              contiki-srf06-cc26xx.a(button-sensor.o) (gpio_interrupt_register_handler)
contiki-srf06-cc26xx.a(oscillators.o)
                              contiki-srf06-cc26xx.a(contiki-main.o) (oscillators_select_lf_xosc)
contiki-srf06-cc26xx.a(rf-ble.o)
                              obj_srf06-cc26xx/res-ble-advd.o (rf_ble_beacond_config)
contiki-srf06-cc26xx.a(ieee-mode.o)
                              contiki-srf06-cc26xx.a(contiki-main.o) (ieee_mode_driver)
contiki-srf06-cc26xx.a(dbg-printf.o)
                              obj_srf06-cc26xx/net-uart.o (printf)
contiki-srf06-cc26xx.a(dbg-snprintf.o)
                              cc26xx-web-demo.co (snprintf)
contiki-srf06-cc26xx.a(dbg-sprintf.o)
                              cc26xx-web-demo.co (sprintf)
contiki-srf06-cc26xx.a(strformat.o)
                              contiki-srf06-cc26xx.a(dbg-printf.o) (format_str_v)
contiki-srf06-cc26xx.a(autostart.o)
                              contiki-srf06-cc26xx.a(contiki-main.o) (autostart_start)
contiki-srf06-cc26xx.a(ctimer.o)
                              contiki-srf06-cc26xx.a(contiki-main.o) (ctimer_init)
contiki-srf06-cc26xx.a(energest.o)
                              contiki-srf06-cc26xx.a(contiki-main.o) (energest_init)
contiki-srf06-cc26xx.a(etimer.o)
                              contiki-srf06-cc26xx.a(clock.o) (etimer_request_poll)
contiki-srf06-cc26xx.a(process.o)
                              cc26xx-web-demo.co (process_alloc_event)
contiki-srf06-cc26xx.a(rtimer.o)
                              contiki-srf06-cc26xx.a(contiki-main.o) (rtimer_init)
contiki-srf06-cc26xx.a(timer.o)
                              obj_srf06-cc26xx/mqtt-client.o (timer_set)
contiki-srf06-cc26xx.a(serial-line.o)
                              obj_srf06-cc26xx/net-uart.o (serial_line_event_message)
contiki-srf06-cc26xx.a(list.o)
                              contiki-srf06-cc26xx.a(rest-engine.o) (list_init)
contiki-srf06-cc26xx.a(memb.o)
                              obj_srf06-cc26xx/httpd-simple.o (memb_init)
contiki-srf06-cc26xx.a(random.o)
                              contiki-srf06-cc26xx.a(contiki-main.o) (random_init)
contiki-srf06-cc26xx.a(ringbuf.o)
                              contiki-srf06-cc26xx.a(serial-line.o) (ringbuf_init)
contiki-srf06-cc26xx.a(sicslowpan.o)
                              cc26xx-web-demo.co (sicslowpan_get_last_rssi)
contiki-srf06-cc26xx.a(uip6.o)
                              contiki-srf06-cc26xx.a(er-coap-engine.) (uip_aligned_buf)
contiki-srf06-cc26xx.a(uip-ds6.o)
                              contiki-srf06-cc26xx.a(uip6.o) (uip_ds6_is_addr_onlink)
contiki-srf06-cc26xx.a(uip-ds6-nbr.o)
                              contiki-srf06-cc26xx.a(uip-ds6.o) (uip_ds6_neighbors_init)
contiki-srf06-cc26xx.a(uip-ds6-route.o)
                              contiki-srf06-cc26xx.a(uip-ds6.o) (uip_ds6_route_init)
contiki-srf06-cc26xx.a(uip-icmp6.o)
                              contiki-srf06-cc26xx.a(uip6.o) (uip_icmp6_input)
contiki-srf06-cc26xx.a(uip-nd6.o)
                              contiki-srf06-cc26xx.a(uip6.o) (uip_nd6_init)
contiki-srf06-cc26xx.a(psock.o)
                              obj_srf06-cc26xx/httpd-simple.o (psock_send)
contiki-srf06-cc26xx.a(tcpip.o)
                              contiki-srf06-cc26xx.a(sicslowpan.o) (tcpip_set_outputfunc)
contiki-srf06-cc26xx.a(tcp-socket.o)
                              contiki-srf06-cc26xx.a(mqtt.o) (tcp_socket_register)
contiki-srf06-cc26xx.a(uip-debug.o)
                              contiki-srf06-cc26xx.a(uip-ds6-route.o) (uip_debug_ipaddr_print)
contiki-srf06-cc26xx.a(uiplib.o)
                              obj_srf06-cc26xx/net-uart.o (uiplib_ip6addrconv)
contiki-srf06-cc26xx.a(uip-udp-packet.)
                              obj_srf06-cc26xx/cetic-6lbr-client.o (uip_udp_packet_send)
contiki-srf06-cc26xx.a(rpl.o)
                              contiki-srf06-cc26xx.a(uip-ds6-nbr.o) (rpl_link_neighbor_callback)
contiki-srf06-cc26xx.a(rpl-dag.o)
                              contiki-srf06-cc26xx.a(rpl.o) (default_instance)
contiki-srf06-cc26xx.a(rpl-ext-header.)
                              contiki-srf06-cc26xx.a(uip6.o) (rpl_verify_header)
contiki-srf06-cc26xx.a(rpl-icmp6.o)
                              contiki-srf06-cc26xx.a(rpl.o) (dao_output_target)
contiki-srf06-cc26xx.a(rpl-mrhof.o)
                              contiki-srf06-cc26xx.a(rpl.o) (rpl_mrhof)
contiki-srf06-cc26xx.a(rpl-timers.o)
                              contiki-srf06-cc26xx.a(rpl.o) (rpl_reset_periodic_timer)
contiki-srf06-cc26xx.a(aon_batmon.o)
                              contiki-srf06-cc26xx.a(batmon-sensor.o) (AONBatMonTemperatureGetDegC)
contiki-srf06-cc26xx.a(aon_rtc.o)
                              contiki-srf06-cc26xx.a(rtimer-arch.o) (NOROM_AONRTCCurrentCompareValueGet)
contiki-srf06-cc26xx.a(chipinfo.o)
                              obj_srf06-cc26xx/res-device.o (ChipInfo_GetSupportedProtocol_BV)
contiki-srf06-cc26xx.a(cpu.o)
                              contiki-srf06-cc26xx.a(contiki-main.o) (NOROM_CPUcpsid)
contiki-srf06-cc26xx.a(ddi.o)
                              contiki-srf06-cc26xx.a(oscillators.o) (NOROM_DDI16BitfieldWrite)
contiki-srf06-cc26xx.a(osc.o)
                              contiki-srf06-cc26xx.a(oscillators.o) (NOROM_OSCClockSourceSet)
contiki-srf06-cc26xx.a(pwr_ctrl.o)
                              contiki-srf06-cc26xx.a(lpm.o) (NOROM_PowerCtrlSourceSet)
contiki-srf06-cc26xx.a(setup.o)
                              obj_srf06-cc26xx/startup_gcc.o (trimDevice)
contiki-srf06-cc26xx.a(sys_ctrl.o)
                              contiki-srf06-cc26xx.a(lpm.o) (SysCtrlSetRechargeBeforePowerDown)
contiki-srf06-cc26xx.a(linkaddr.o)
                              contiki-srf06-cc26xx.a(sicslowpan.o) (linkaddr_copy)
contiki-srf06-cc26xx.a(nbr-table.o)
                              contiki-srf06-cc26xx.a(uip-ds6-nbr.o) (nbr_table_register)
contiki-srf06-cc26xx.a(netstack.o)
                              contiki-srf06-cc26xx.a(contiki-main.o) (netstack_init)
contiki-srf06-cc26xx.a(packetbuf.o)
                              contiki-srf06-cc26xx.a(sicslowpan.o) (packetbuf_set_datalen)
contiki-srf06-cc26xx.a(queuebuf.o)
                              contiki-srf06-cc26xx.a(contiki-main.o) (queuebuf_init)
contiki-srf06-cc26xx.a(csma.o)
                              contiki-srf06-cc26xx.a(contiki-main.o) (csma_driver)
contiki-srf06-cc26xx.a(framer-802154.o)
                              contiki-srf06-cc26xx.a(sicslowpan.o) (framer_802154)
contiki-srf06-cc26xx.a(mac.o)
                              contiki-srf06-cc26xx.a(csma.o) (mac_call_sent_callback)
contiki-srf06-cc26xx.a(contikimac.o)
                              contiki-srf06-cc26xx.a(contiki-main.o) (contikimac_driver)
contiki-srf06-cc26xx.a(nullsec.o)
                              contiki-srf06-cc26xx.a(sicslowpan.o) (nullsec_driver)
contiki-srf06-cc26xx.a(er-coap.o)
                              contiki-srf06-cc26xx.a(er-coap-engine.) (coap_init_connection)
contiki-srf06-cc26xx.a(sensor-common.o)
                              contiki-srf06-cc26xx.a(bmp-280-sensor.) (sensor_common_read_reg)
contiki-srf06-cc26xx.a(rf-core.o)
                              contiki-srf06-cc26xx.a(rf-ble.o) (rf_core_is_accessible)
contiki-srf06-cc26xx.a(stimer.o)
                              contiki-srf06-cc26xx.a(uip-ds6.o) (stimer_set)
contiki-srf06-cc26xx.a(frame802154.o)
                              contiki-srf06-cc26xx.a(framer-802154.o) (frame802154_get_pan_id)
contiki-srf06-cc26xx.a(mac-sequence.o)
                              contiki-srf06-cc26xx.a(contikimac.o) (mac_sequence_is_duplicate)
/home/paul/gcc-arm-none-eabi-5_2-2015q4/bin/../lib/gcc/arm-none-eabi/5.2.1/../../../../arm-none-eabi/lib/armv7-m/libm.a(lib_a-w_exp2.o)
                              contiki-srf06-cc26xx.a(opt-3001-sensor) (exp2)
/home/paul/gcc-arm-none-eabi-5_2-2015q4/bin/../lib/gcc/arm-none-eabi/5.2.1/../../../../arm-none-eabi/lib/armv7-m/libm.a(lib_a-w_pow.o)
                              /home/paul/gcc-arm-none-eabi-5_2-2015q4/bin/../lib/gcc/arm-none-eabi/5.2.1/../../../../arm-none-eabi/lib/armv7-m/libm.a(lib_a-w_exp2.o) (pow)
/home/paul/gcc-arm-none-eabi-5_2-2015q4/bin/../lib/gcc/arm-none-eabi/5.2.1/../../../../arm-none-eabi/lib/armv7-m/libm.a(lib_a-e_pow.o)
                              /home/paul/gcc-arm-none-eabi-5_2-2015q4/bin/../lib/gcc/arm-none-eabi/5.2.1/../../../../arm-none-eabi/lib/armv7-m/libm.a(lib_a-w_pow.o) (__ieee754_pow)
/home/paul/gcc-arm-none-eabi-5_2-2015q4/bin/../lib/gcc/arm-none-eabi/5.2.1/../../../../arm-none-eabi/lib/armv7-m/libm.a(lib_a-e_sqrt.o)
                              /home/paul/gcc-arm-none-eabi-5_2-2015q4/bin/../lib/gcc/arm-none-eabi/5.2.1/../../../../arm-none-eabi/lib/armv7-m/libm.a(lib_a-e_pow.o) (__ieee754_sqrt)
/home/paul/gcc-arm-none-eabi-5_2-2015q4/bin/../lib/gcc/arm-none-eabi/5.2.1/../../../../arm-none-eabi/lib/armv7-m/libm.a(lib_a-s_fabs.o)
                              /home/paul/gcc-arm-none-eabi-5_2-2015q4/bin/../lib/gcc/arm-none-eabi/5.2.1/../../../../arm-none-eabi/lib/armv7-m/libm.a(lib_a-e_pow.o) (fabs)
/home/paul/gcc-arm-none-eabi-5_2-2015q4/bin/../lib/gcc/arm-none-eabi/5.2.1/../../../../arm-none-eabi/lib/armv7-m/libm.a(lib_a-s_finite.o)
                              /home/paul/gcc-arm-none-eabi-5_2-2015q4/bin/../lib/gcc/arm-none-eabi/5.2.1/../../../../arm-none-eabi/lib/armv7-m/libm.a(lib_a-w_pow.o) (finite)
/home/paul/gcc-arm-none-eabi-5_2-2015q4/bin/../lib/gcc/arm-none-eabi/5.2.1/../../../../arm-none-eabi/lib/armv7-m/libm.a(lib_a-s_fpclassify.o)
                              /home/paul/gcc-arm-none-eabi-5_2-2015q4/bin/../lib/gcc/arm-none-eabi/5.2.1/../../../../arm-none-eabi/lib/armv7-m/libm.a(lib_a-w_pow.o) (__fpclassifyd)
/home/paul/gcc-arm-none-eabi-5_2-2015q4/bin/../lib/gcc/arm-none-eabi/5.2.1/../../../../arm-none-eabi/lib/armv7-m/libm.a(lib_a-s_lib_ver.o)
                              /home/paul/gcc-arm-none-eabi-5_2-2015q4/bin/../lib/gcc/arm-none-eabi/5.2.1/../../../../arm-none-eabi/lib/armv7-m/libm.a(lib_a-w_pow.o) (__fdlib_version)
/home/paul/gcc-arm-none-eabi-5_2-2015q4/bin/../lib/gcc/arm-none-eabi/5.2.1/../../../../arm-none-eabi/lib/armv7-m/libm.a(lib_a-s_matherr.o)
                              /home/paul/gcc-arm-none-eabi-5_2-2015q4/bin/../lib/gcc/arm-none-eabi/5.2.1/../../../../arm-none-eabi/lib/armv7-m/libm.a(lib_a-w_pow.o) (matherr)
/home/paul/gcc-arm-none-eabi-5_2-2015q4/bin/../lib/gcc/arm-none-eabi/5.2.1/../../../../arm-none-eabi/lib/armv7-m/libm.a(lib_a-s_nan.o)
                              /home/paul/gcc-arm-none-eabi-5_2-2015q4/bin/../lib/gcc/arm-none-eabi/5.2.1/../../../../arm-none-eabi/lib/armv7-m/libm.a(lib_a-e_pow.o) (nan)
/home/paul/gcc-arm-none-eabi-5_2-2015q4/bin/../lib/gcc/arm-none-eabi/5.2.1/../../../../arm-none-eabi/lib/armv7-m/libm.a(lib_a-s_rint.o)
                              /home/paul/gcc-arm-none-eabi-5_2-2015q4/bin/../lib/gcc/arm-none-eabi/5.2.1/../../../../arm-none-eabi/lib/armv7-m/libm.a(lib_a-w_pow.o) (rint)
/home/paul/gcc-arm-none-eabi-5_2-2015q4/bin/../lib/gcc/arm-none-eabi/5.2.1/../../../../arm-none-eabi/lib/armv7-m/libm.a(lib_a-s_scalbn.o)
                              /home/paul/gcc-arm-none-eabi-5_2-2015q4/bin/../lib/gcc/arm-none-eabi/5.2.1/../../../../arm-none-eabi/lib/armv7-m/libm.a(lib_a-e_pow.o) (scalbn)
/home/paul/gcc-arm-none-eabi-5_2-2015q4/bin/../lib/gcc/arm-none-eabi/5.2.1/../../../../arm-none-eabi/lib/armv7-m/libm.a(lib_a-s_copysign.o)
                              /home/paul/gcc-arm-none-eabi-5_2-2015q4/bin/../lib/gcc/arm-none-eabi/5.2.1/../../../../arm-none-eabi/lib/armv7-m/libm.a(lib_a-s_scalbn.o) (copysign)
/home/paul/gcc-arm-none-eabi-5_2-2015q4/bin/../lib/gcc/arm-none-eabi/5.2.1/armv7-m/libgcc.a(_arm_addsubdf3.o)
                              contiki-srf06-cc26xx.a(hdc-1000-sensor) (__aeabi_dsub)
/home/paul/gcc-arm-none-eabi-5_2-2015q4/bin/../lib/gcc/arm-none-eabi/5.2.1/armv7-m/libgcc.a(_arm_muldivdf3.o)
                              contiki-srf06-cc26xx.a(opt-3001-sensor) (__aeabi_dmul)
/home/paul/gcc-arm-none-eabi-5_2-2015q4/bin/../lib/gcc/arm-none-eabi/5.2.1/armv7-m/libgcc.a(_arm_cmpdf2.o)
                              /home/paul/gcc-arm-none-eabi-5_2-2015q4/bin/../lib/gcc/arm-none-eabi/5.2.1/../../../../arm-none-eabi/lib/armv7-m/libm.a(lib_a-w_pow.o) (__aeabi_dcmpeq)
/home/paul/gcc-arm-none-eabi-5_2-2015q4/bin/../lib/gcc/arm-none-eabi/5.2.1/armv7-m/libgcc.a(_arm_truncdfsf2.o)
                              contiki-srf06-cc26xx.a(opt-3001-sensor) (__aeabi_d2f)
/home/paul/gcc-arm-none-eabi-5_2-2015q4/bin/../lib/gcc/arm-none-eabi/5.2.1/armv7-m/libgcc.a(_arm_addsubsf3.o)
                              contiki-srf06-cc26xx.a(tmp-007-sensor.) (__aeabi_i2f)
/home/paul/gcc-arm-none-eabi-5_2-2015q4/bin/../lib/gcc/arm-none-eabi/5.2.1/armv7-m/libgcc.a(_arm_muldivsf3.o)
                              contiki-srf06-cc26xx.a(tmp-007-sensor.) (__aeabi_fmul)
/home/paul/gcc-arm-none-eabi-5_2-2015q4/bin/../lib/gcc/arm-none-eabi/5.2.1/armv7-m/libgcc.a(_arm_fixsfsi.o)
                              contiki-srf06-cc26xx.a(tmp-007-sensor.) (__aeabi_f2iz)
/home/paul/gcc-arm-none-eabi-5_2-2015q4/bin/../lib/gcc/arm-none-eabi/5.2.1/armv7-m/libgcc.a(_aeabi_uldivmod.o)
                              contiki-srf06-cc26xx.a(strformat.o) (__aeabi_uldivmod)
/home/paul/gcc-arm-none-eabi-5_2-2015q4/bin/../lib/gcc/arm-none-eabi/5.2.1/armv7-m/libgcc.a(_udivmoddi4.o)
                              /home/paul/gcc-arm-none-eabi-5_2-2015q4/bin/../lib/gcc/arm-none-eabi/5.2.1/armv7-m/libgcc.a(_aeabi_uldivmod.o) (__udivmoddi4)
/home/paul/gcc-arm-none-eabi-5_2-2015q4/bin/../lib/gcc/arm-none-eabi/5.2.1/armv7-m/libgcc.a(_dvmd_tls.o)
                              /home/paul/gcc-arm-none-eabi-5_2-2015q4/bin/../lib/gcc/arm-none-eabi/5.2.1/armv7-m/libgcc.a(_aeabi_uldivmod.o) (__aeabi_ldiv0)
/home/paul/gcc-arm-none-eabi-5_2-2015q4/bin/../lib/gcc/arm-none-eabi/5.2.1/../../../../arm-none-eabi/lib/armv7-m/libc.a(lib_a-atoi.o)
                              cc26xx-web-demo.co (atoi)
/home/paul/gcc-arm-none-eabi-5_2-2015q4/bin/../lib/gcc/arm-none-eabi/5.2.1/../../../../arm-none-eabi/lib/armv7-m/libc.a(lib_a-ctype_.o)
                              obj_srf06-cc26xx/httpd-simple.o (__ctype_ptr__)
/home/paul/gcc-arm-none-eabi-5_2-2015q4/bin/../lib/gcc/arm-none-eabi/5.2.1/../../../../arm-none-eabi/lib/armv7-m/libc.a(lib_a-errno.o)
                              /home/paul/gcc-arm-none-eabi-5_2-2015q4/bin/../lib/gcc/arm-none-eabi/5.2.1/../../../../arm-none-eabi/lib/armv7-m/libm.a(lib_a-w_pow.o) (__errno)
/home/paul/gcc-arm-none-eabi-5_2-2015q4/bin/../lib/gcc/arm-none-eabi/5.2.1/../../../../arm-none-eabi/lib/armv7-m/libc.a(lib_a-impure.o)
                              /home/paul/gcc-arm-none-eabi-5_2-2015q4/bin/../lib/gcc/arm-none-eabi/5.2.1/../../../../arm-none-eabi/lib/armv7-m/libc.a(lib_a-errno.o) (_impure_ptr)
/home/paul/gcc-arm-none-eabi-5_2-2015q4/bin/../lib/gcc/arm-none-eabi/5.2.1/../../../../arm-none-eabi/lib/armv7-m/libc.a(lib_a-memchr-stub.o)
                              contiki-srf06-cc26xx.a(er-coap.o) (memchr)
/home/paul/gcc-arm-none-eabi-5_2-2015q4/bin/../lib/gcc/arm-none-eabi/5.2.1/../../../../arm-none-eabi/lib/armv7-m/libc.a(lib_a-memcmp.o)
                              cc26xx-web-demo.co (memcmp)
/home/paul/gcc-arm-none-eabi-5_2-2015q4/bin/../lib/gcc/arm-none-eabi/5.2.1/../../../../arm-none-eabi/lib/armv7-m/libc.a(lib_a-memcpy.o)
                              cc26xx-web-demo.co (memcpy)
/home/paul/gcc-arm-none-eabi-5_2-2015q4/bin/../lib/gcc/arm-none-eabi/5.2.1/../../../../arm-none-eabi/lib/armv7-m/libc.a(lib_a-memmove.o)
                              contiki-srf06-cc26xx.a(sicslowpan.o) (memmove)
/home/paul/gcc-arm-none-eabi-5_2-2015q4/bin/../lib/gcc/arm-none-eabi/5.2.1/../../../../arm-none-eabi/lib/armv7-m/libc.a(lib_a-memset.o)
                              obj_srf06-cc26xx/res-ble-advd.o (memset)
/home/paul/gcc-arm-none-eabi-5_2-2015q4/bin/../lib/gcc/arm-none-eabi/5.2.1/../../../../arm-none-eabi/lib/armv7-m/libc.a(lib_a-rand.o)
                              contiki-srf06-cc26xx.a(random.o) (srand)
/home/paul/gcc-arm-none-eabi-5_2-2015q4/bin/../lib/gcc/arm-none-eabi/5.2.1/../../../../arm-none-eabi/lib/armv7-m/libc.a(lib_a-strchr.o)
                              contiki-srf06-cc26xx.a(er-coap.o) (strchr)
/home/paul/gcc-arm-none-eabi-5_2-2015q4/bin/../lib/gcc/arm-none-eabi/5.2.1/../../../../arm-none-eabi/lib/armv7-m/libc.a(lib_a-strlen-stub.o)
                              cc26xx-web-demo.co (strlen)
/home/paul/gcc-arm-none-eabi-5_2-2015q4/bin/../lib/gcc/arm-none-eabi/5.2.1/../../../../arm-none-eabi/lib/armv7-m/libc.a(lib_a-strncasecmp.o)
                              cc26xx-web-demo.co (strncasecmp)
/home/paul/gcc-arm-none-eabi-5_2-2015q4/bin/../lib/gcc/arm-none-eabi/5.2.1/../../../../arm-none-eabi/lib/armv7-m/libc.a(lib_a-strncmp.o)
                              cc26xx-web-demo.co (strncmp)
/home/paul/gcc-arm-none-eabi-5_2-2015q4/bin/../lib/gcc/arm-none-eabi/5.2.1/../../../../arm-none-eabi/lib/armv7-m/libc.a(lib_a-strncpy.o)
                              obj_srf06-cc26xx/httpd-simple.o (strncpy)
/home/paul/gcc-arm-none-eabi-5_2-2015q4/bin/../lib/gcc/arm-none-eabi/5.2.1/../../../../arm-none-eabi/lib/armv7-m/libc.a(lib_a-strtol.o)
                              /home/paul/gcc-arm-none-eabi-5_2-2015q4/bin/../lib/gcc/arm-none-eabi/5.2.1/../../../../arm-none-eabi/lib/armv7-m/libc.a(lib_a-atoi.o) (_strtol_r)

Allocating common symbols
Common symbol       size              file

uip_ds6_timer_ra    0x8               contiki-srf06-cc26xx.a(uip-ds6.o)
conf                0x4               obj_srf06-cc26xx/mqtt-client.o
uip_ds6_if          0xf8              contiki-srf06-cc26xx.a(uip-ds6.o)
uip_ds6_netif_addr_list_offset
                    0x1               contiki-srf06-cc26xx.a(uip-ds6.o)
uip_len             0x2               contiki-srf06-cc26xx.a(uip6.o)
cc26xx_web_demo_publish_event
                    0x1               cc26xx-web-demo.co
mqtt_update_event   0x1               contiki-srf06-cc26xx.a(mqtt.o)
uip_ds6_addr_size   0x1               contiki-srf06-cc26xx.a(uip-ds6.o)
uip_sappdata        0x4               contiki-srf06-cc26xx.a(uip6.o)
packetbuf_addrs     0x10              contiki-srf06-cc26xx.a(packetbuf.o)
uip_acc32           0x4               contiki-srf06-cc26xx.a(uip6.o)
uip_ds6_prefix_list
                    0x60              contiki-srf06-cc26xx.a(uip-ds6.o)
cc26xx_web_demo_config
                    0x124             cc26xx-web-demo.co
uip_lladdr          0x8               contiki-srf06-cc26xx.a(uip6.o)
uip_aligned_buf     0x384             contiki-srf06-cc26xx.a(uip6.o)
uip_flags           0x1               contiki-srf06-cc26xx.a(uip6.o)
tmp_timer           0x20              cc26xx-web-demo.co
opt_timer           0x20              cc26xx-web-demo.co
uip_ds6_timer_periodic
                    0x10              contiki-srf06-cc26xx.a(uip-ds6.o)
uip_next_hdr        0x4               contiki-srf06-cc26xx.a(uip6.o)
linkaddr_node_addr  0x8               contiki-srf06-cc26xx.a(linkaddr.o)
default_instance    0x4               contiki-srf06-cc26xx.a(rpl-dag.o)
uip_udp_conn        0x4               contiki-srf06-cc26xx.a(uip6.o)
packetbuf_attrs     0x1e              contiki-srf06-cc26xx.a(packetbuf.o)
instance_table      0x150             contiki-srf06-cc26xx.a(rpl-dag.o)
uip_appdata         0x4               contiki-srf06-cc26xx.a(uip6.o)
uip_conn            0x4               contiki-srf06-cc26xx.a(uip6.o)
tcpip_event         0x1               contiki-srf06-cc26xx.a(tcpip.o)
uip_conns           0x1e0             contiki-srf06-cc26xx.a(uip6.o)
uip_icmp6_conns     0x8               contiki-srf06-cc26xx.a(uip6.o)
cc26xx_web_demo_config_loaded_event
                    0x1               cc26xx-web-demo.co
bmp_timer           0x20              cc26xx-web-demo.co
batmon_timer        0x20              cc26xx-web-demo.co
t0                  0x4               contiki-srf06-cc26xx.a(mpu-9250-sensor)
uip_listenports     0x28              contiki-srf06-cc26xx.a(uip6.o)
cc26xx_web_demo_load_config_defaults
                    0x1               cc26xx-web-demo.co
sensors_flags       0x9               contiki-srf06-cc26xx.a(sensortag-senso)
httpd_simple_event_new_config
                    0x1               obj_srf06-cc26xx/httpd-simple.o
serial_line_event_message
                    0x1               contiki-srf06-cc26xx.a(serial-line.o)
mpu_timer           0x20              cc26xx-web-demo.co
hdc_timer           0x20              cc26xx-web-demo.co
sensors_event       0x1               contiki-srf06-cc26xx.a(sensors.o)
tcpip_icmp6_event   0x1               contiki-srf06-cc26xx.a(tcpip.o)
uip_slen            0x2               contiki-srf06-cc26xx.a(uip6.o)
uip_udp_conns       0x140             contiki-srf06-cc26xx.a(uip6.o)

Discarded input sections

 .text          0x00000000        0x0 obj_srf06-cc26xx/fault-handlers.o
 .data          0x00000000        0x0 obj_srf06-cc26xx/fault-handlers.o
 .bss           0x00000000        0x0 obj_srf06-cc26xx/fault-handlers.o
 .text          0x00000000        0x0 obj_srf06-cc26xx/ccfg.o
 .data          0x00000000        0x0 obj_srf06-cc26xx/ccfg.o
 .bss           0x00000000        0x0 obj_srf06-cc26xx/ccfg.o
 .text          0x00000000        0x0 obj_srf06-cc26xx/startup_gcc.o
 .data          0x00000000        0x0 obj_srf06-cc26xx/startup_gcc.o
 .bss           0x00000000        0x0 obj_srf06-cc26xx/startup_gcc.o
 .text.FaultISRHandler
                0x00000000        0x4 obj_srf06-cc26xx/startup_gcc.o
 .text          0x00000000        0x0 cc26xx-web-demo.co
 .data          0x00000000        0x0 cc26xx-web-demo.co
 .bss           0x00000000        0x0 cc26xx-web-demo.co
 .text          0x00000000        0x0 obj_srf06-cc26xx/res-leds.o
 .data          0x00000000        0x0 obj_srf06-cc26xx/res-leds.o
 .bss           0x00000000        0x0 obj_srf06-cc26xx/res-leds.o
 .text          0x00000000        0x0 obj_srf06-cc26xx/res-toggle-leds.o
 .data          0x00000000        0x0 obj_srf06-cc26xx/res-toggle-leds.o
 .bss           0x00000000        0x0 obj_srf06-cc26xx/res-toggle-leds.o
 .text          0x00000000        0x0 obj_srf06-cc26xx/res-device.o
 .data          0x00000000        0x0 obj_srf06-cc26xx/res-device.o
 .bss           0x00000000        0x0 obj_srf06-cc26xx/res-device.o
 .text          0x00000000        0x0 obj_srf06-cc26xx/res-sensors.o
 .data          0x00000000        0x0 obj_srf06-cc26xx/res-sensors.o
 .bss           0x00000000        0x0 obj_srf06-cc26xx/res-sensors.o
 .text          0x00000000        0x0 obj_srf06-cc26xx/res-ble-advd.o
 .data          0x00000000        0x0 obj_srf06-cc26xx/res-ble-advd.o
 .bss           0x00000000        0x0 obj_srf06-cc26xx/res-ble-advd.o
 .text          0x00000000        0x0 obj_srf06-cc26xx/res-net.o
 .data          0x00000000        0x0 obj_srf06-cc26xx/res-net.o
 .bss           0x00000000        0x0 obj_srf06-cc26xx/res-net.o
 .text          0x00000000        0x0 obj_srf06-cc26xx/cetic-6lbr-client.o
 .data          0x00000000        0x0 obj_srf06-cc26xx/cetic-6lbr-client.o
 .bss           0x00000000        0x0 obj_srf06-cc26xx/cetic-6lbr-client.o
 .text          0x00000000        0x0 obj_srf06-cc26xx/coap-server.o
 .data          0x00000000        0x0 obj_srf06-cc26xx/coap-server.o
 .bss           0x00000000        0x0 obj_srf06-cc26xx/coap-server.o
 .text          0x00000000        0x0 obj_srf06-cc26xx/net-uart.o
 .data          0x00000000        0x0 obj_srf06-cc26xx/net-uart.o
 .bss           0x00000000        0x0 obj_srf06-cc26xx/net-uart.o
 .text          0x00000000        0x0 obj_srf06-cc26xx/mqtt-client.o
 .data          0x00000000        0x0 obj_srf06-cc26xx/mqtt-client.o
 .bss           0x00000000        0x0 obj_srf06-cc26xx/mqtt-client.o
 .text          0x00000000        0x0 obj_srf06-cc26xx/httpd-simple.o
 .data          0x00000000        0x0 obj_srf06-cc26xx/httpd-simple.o
 .bss           0x00000000        0x0 obj_srf06-cc26xx/httpd-simple.o
 .text          0x00000000        0x0 contiki-srf06-cc26xx.a(er-coap-engine.)
 .data          0x00000000        0x0 contiki-srf06-cc26xx.a(er-coap-engine.)
 .bss           0x00000000        0x0 contiki-srf06-cc26xx.a(er-coap-engine.)
 .text.coap_blocking_request_callback
                0x00000000        0x8 contiki-srf06-cc26xx.a(er-coap-engine.)
 .text.coap_blocking_request
                0x00000000       0xf0 contiki-srf06-cc26xx.a(er-coap-engine.)
 .bss.block_error.8555
                0x00000000        0x1 contiki-srf06-cc26xx.a(er-coap-engine.)
 .bss.more.8553
                0x00000000        0x1 contiki-srf06-cc26xx.a(er-coap-engine.)
 .bss.res_block.8554
                0x00000000        0x4 contiki-srf06-cc26xx.a(er-coap-engine.)
 .text          0x00000000        0x0 contiki-srf06-cc26xx.a(er-coap-transac)
 .data          0x00000000        0x0 contiki-srf06-cc26xx.a(er-coap-transac)
 .bss           0x00000000        0x0 contiki-srf06-cc26xx.a(er-coap-transac)
 .text          0x00000000        0x0 contiki-srf06-cc26xx.a(er-coap-observe)
 .data          0x00000000        0x0 contiki-srf06-cc26xx.a(er-coap-observe)
 .bss           0x00000000        0x0 contiki-srf06-cc26xx.a(er-coap-observe)
 .text          0x00000000        0x0 contiki-srf06-cc26xx.a(er-coap-res-wel)
 .data          0x00000000        0x0 contiki-srf06-cc26xx.a(er-coap-res-wel)
 .bss           0x00000000        0x0 contiki-srf06-cc26xx.a(er-coap-res-wel)
 .text          0x00000000        0x0 contiki-srf06-cc26xx.a(rest-engine.o)
 .data          0x00000000        0x0 contiki-srf06-cc26xx.a(rest-engine.o)
 .bss           0x00000000        0x0 contiki-srf06-cc26xx.a(rest-engine.o)
 .text          0x00000000        0x0 contiki-srf06-cc26xx.a(mqtt.o)
 .data          0x00000000        0x0 contiki-srf06-cc26xx.a(mqtt.o)
 .bss           0x00000000        0x0 contiki-srf06-cc26xx.a(mqtt.o)
 .text.mqtt_init
                0x00000000       0x10 contiki-srf06-cc26xx.a(mqtt.o)
 .text.mqtt_unsubscribe
                0x00000000       0x5c contiki-srf06-cc26xx.a(mqtt.o)
 .text.mqtt_set_last_will
                0x00000000       0x54 contiki-srf06-cc26xx.a(mqtt.o)
 .text          0x00000000        0x0 contiki-srf06-cc26xx.a(contiki-main.o)
 .data          0x00000000        0x0 contiki-srf06-cc26xx.a(contiki-main.o)
 .bss           0x00000000        0x0 contiki-srf06-cc26xx.a(contiki-main.o)
 .text          0x00000000        0x0 contiki-srf06-cc26xx.a(sensors.o)
 .data          0x00000000        0x0 contiki-srf06-cc26xx.a(sensors.o)
 .bss           0x00000000        0x0 contiki-srf06-cc26xx.a(sensors.o)
 .text.sensors_first
                0x00000000        0xc contiki-srf06-cc26xx.a(sensors.o)
 .text.sensors_next
                0x00000000       0x4c contiki-srf06-cc26xx.a(sensors.o)
 .text.sensors_find
                0x00000000       0x50 contiki-srf06-cc26xx.a(sensors.o)
 .text          0x00000000        0x0 contiki-srf06-cc26xx.a(leds.o)
 .data          0x00000000        0x0 contiki-srf06-cc26xx.a(leds.o)
 .bss           0x00000000        0x0 contiki-srf06-cc26xx.a(leds.o)
 .text.leds_blink
                0x00000000       0x30 contiki-srf06-cc26xx.a(leds.o)
 .text.leds_get
                0x00000000        0x4 contiki-srf06-cc26xx.a(leds.o)
 .text.leds_set
                0x00000000        0xc contiki-srf06-cc26xx.a(leds.o)
 .text          0x00000000        0x0 contiki-srf06-cc26xx.a(leds-arch.o)
 .data          0x00000000        0x0 contiki-srf06-cc26xx.a(leds-arch.o)
 .bss           0x00000000        0x0 contiki-srf06-cc26xx.a(leds-arch.o)
 .text.leds_arch_get
                0x00000000        0xc contiki-srf06-cc26xx.a(leds-arch.o)
 .text          0x00000000        0x0 contiki-srf06-cc26xx.a(sensortag-senso)
 .data          0x00000000        0x0 contiki-srf06-cc26xx.a(sensortag-senso)
 .bss           0x00000000        0x0 contiki-srf06-cc26xx.a(sensortag-senso)
 .text          0x00000000        0x0 contiki-srf06-cc26xx.a(bmp-280-sensor.)
 .data          0x00000000        0x0 contiki-srf06-cc26xx.a(bmp-280-sensor.)
 .bss           0x00000000        0x0 contiki-srf06-cc26xx.a(bmp-280-sensor.)
 .text          0x00000000        0x0 contiki-srf06-cc26xx.a(tmp-007-sensor.)
 .data          0x00000000        0x0 contiki-srf06-cc26xx.a(tmp-007-sensor.)
 .bss           0x00000000        0x0 contiki-srf06-cc26xx.a(tmp-007-sensor.)
 .text          0x00000000        0x0 contiki-srf06-cc26xx.a(opt-3001-sensor)
 .data          0x00000000        0x0 contiki-srf06-cc26xx.a(opt-3001-sensor)
 .bss           0x00000000        0x0 contiki-srf06-cc26xx.a(opt-3001-sensor)
 .text          0x00000000        0x0 contiki-srf06-cc26xx.a(hdc-1000-sensor)
 .data          0x00000000        0x0 contiki-srf06-cc26xx.a(hdc-1000-sensor)
 .bss           0x00000000        0x0 contiki-srf06-cc26xx.a(hdc-1000-sensor)
 .text          0x00000000        0x0 contiki-srf06-cc26xx.a(mpu-9250-sensor)
 .data          0x00000000        0x0 contiki-srf06-cc26xx.a(mpu-9250-sensor)
 .bss           0x00000000        0x0 contiki-srf06-cc26xx.a(mpu-9250-sensor)
 .text          0x00000000        0x0 contiki-srf06-cc26xx.a(button-sensor.o)
 .data          0x00000000        0x0 contiki-srf06-cc26xx.a(button-sensor.o)
 .bss           0x00000000        0x0 contiki-srf06-cc26xx.a(button-sensor.o)
 .text          0x00000000        0x0 contiki-srf06-cc26xx.a(reed-relay.o)
 .data          0x00000000        0x0 contiki-srf06-cc26xx.a(reed-relay.o)
 .bss           0x00000000        0x0 contiki-srf06-cc26xx.a(reed-relay.o)
 .text          0x00000000        0x0 contiki-srf06-cc26xx.a(ext-flash.o)
 .data          0x00000000        0x0 contiki-srf06-cc26xx.a(ext-flash.o)
 .bss           0x00000000        0x0 contiki-srf06-cc26xx.a(ext-flash.o)
 .text.ext_flash_test
                0x00000000       0x14 contiki-srf06-cc26xx.a(ext-flash.o)
 .text          0x00000000        0x0 contiki-srf06-cc26xx.a(buzzer.o)
 .data          0x00000000        0x0 contiki-srf06-cc26xx.a(buzzer.o)
 .bss           0x00000000        0x0 contiki-srf06-cc26xx.a(buzzer.o)
 .text.buzzer_state
                0x00000000        0xc contiki-srf06-cc26xx.a(buzzer.o)
 .text          0x00000000        0x0 contiki-srf06-cc26xx.a(board.o)
 .data          0x00000000        0x0 contiki-srf06-cc26xx.a(board.o)
 .bss           0x00000000        0x0 contiki-srf06-cc26xx.a(board.o)
 .text          0x00000000        0x0 contiki-srf06-cc26xx.a(board-spi.o)
 .data          0x00000000        0x0 contiki-srf06-cc26xx.a(board-spi.o)
 .bss           0x00000000        0x0 contiki-srf06-cc26xx.a(board-spi.o)
 .text          0x00000000        0x0 contiki-srf06-cc26xx.a(board-i2c.o)
 .data          0x00000000        0x0 contiki-srf06-cc26xx.a(board-i2c.o)
 .bss           0x00000000        0x0 contiki-srf06-cc26xx.a(board-i2c.o)
 .text          0x00000000        0x0 contiki-srf06-cc26xx.a(clock.o)
 .data          0x00000000        0x0 contiki-srf06-cc26xx.a(clock.o)
 .bss           0x00000000        0x0 contiki-srf06-cc26xx.a(clock.o)
 .text.clock_wait
                0x00000000       0x58 contiki-srf06-cc26xx.a(clock.o)
 .text.clock_delay_usec
                0x00000000       0x84 contiki-srf06-cc26xx.a(clock.o)
 .text.clock_delay
                0x00000000        0x8 contiki-srf06-cc26xx.a(clock.o)
 .text          0x00000000        0x0 contiki-srf06-cc26xx.a(rtimer-arch.o)
 .data          0x00000000        0x0 contiki-srf06-cc26xx.a(rtimer-arch.o)
 .bss           0x00000000        0x0 contiki-srf06-cc26xx.a(rtimer-arch.o)
 .text          0x00000000        0x0 contiki-srf06-cc26xx.a(soc-rtc.o)
 .data          0x00000000        0x0 contiki-srf06-cc26xx.a(soc-rtc.o)
 .bss           0x00000000        0x0 contiki-srf06-cc26xx.a(soc-rtc.o)
 .text          0x00000000        0x0 contiki-srf06-cc26xx.a(contiki-watchdo)
 .data          0x00000000        0x0 contiki-srf06-cc26xx.a(contiki-watchdo)
 .bss           0x00000000        0x0 contiki-srf06-cc26xx.a(contiki-watchdo)
 .text.watchdog_stop
                0x00000000       0x4c contiki-srf06-cc26xx.a(contiki-watchdo)
 .text.watchdog_reboot
                0x00000000        0x8 contiki-srf06-cc26xx.a(contiki-watchdo)
 .text          0x00000000        0x0 contiki-srf06-cc26xx.a(putchar.o)
 .data          0x00000000        0x0 contiki-srf06-cc26xx.a(putchar.o)
 .bss           0x00000000        0x0 contiki-srf06-cc26xx.a(putchar.o)
 .text          0x00000000        0x0 contiki-srf06-cc26xx.a(ieee-addr.o)
 .data          0x00000000        0x0 contiki-srf06-cc26xx.a(ieee-addr.o)
 .bss           0x00000000        0x0 contiki-srf06-cc26xx.a(ieee-addr.o)
 .text          0x00000000        0x0 contiki-srf06-cc26xx.a(batmon-sensor.o)
 .data          0x00000000        0x0 contiki-srf06-cc26xx.a(batmon-sensor.o)
 .bss           0x00000000        0x0 contiki-srf06-cc26xx.a(batmon-sensor.o)
 .text          0x00000000        0x0 contiki-srf06-cc26xx.a(cc26xx-uart.o)
 .data          0x00000000        0x0 contiki-srf06-cc26xx.a(cc26xx-uart.o)
 .bss           0x00000000        0x0 contiki-srf06-cc26xx.a(cc26xx-uart.o)
 .text          0x00000000        0x0 contiki-srf06-cc26xx.a(lpm.o)
 .data          0x00000000        0x0 contiki-srf06-cc26xx.a(lpm.o)
 .bss           0x00000000        0x0 contiki-srf06-cc26xx.a(lpm.o)
 .text          0x00000000        0x0 contiki-srf06-cc26xx.a(gpio-interrupt.)
 .data          0x00000000        0x0 contiki-srf06-cc26xx.a(gpio-interrupt.)
 .bss           0x00000000        0x0 contiki-srf06-cc26xx.a(gpio-interrupt.)
 .text          0x00000000        0x0 contiki-srf06-cc26xx.a(oscillators.o)
 .data          0x00000000        0x0 contiki-srf06-cc26xx.a(oscillators.o)
 .bss           0x00000000        0x0 contiki-srf06-cc26xx.a(oscillators.o)
 .text          0x00000000        0x0 contiki-srf06-cc26xx.a(rf-ble.o)
 .data          0x00000000        0x0 contiki-srf06-cc26xx.a(rf-ble.o)
 .bss           0x00000000        0x0 contiki-srf06-cc26xx.a(rf-ble.o)
 .text          0x00000000        0x0 contiki-srf06-cc26xx.a(ieee-mode.o)
 .data          0x00000000        0x0 contiki-srf06-cc26xx.a(ieee-mode.o)
 .bss           0x00000000        0x0 contiki-srf06-cc26xx.a(ieee-mode.o)
 .text          0x00000000        0x0 contiki-srf06-cc26xx.a(dbg-printf.o)
 .data          0x00000000        0x0 contiki-srf06-cc26xx.a(dbg-printf.o)
 .bss           0x00000000        0x0 contiki-srf06-cc26xx.a(dbg-printf.o)
 .text          0x00000000        0x0 contiki-srf06-cc26xx.a(dbg-snprintf.o)
 .data          0x00000000        0x0 contiki-srf06-cc26xx.a(dbg-snprintf.o)
 .bss           0x00000000        0x0 contiki-srf06-cc26xx.a(dbg-snprintf.o)
 .text          0x00000000        0x0 contiki-srf06-cc26xx.a(dbg-sprintf.o)
 .data          0x00000000        0x0 contiki-srf06-cc26xx.a(dbg-sprintf.o)
 .bss           0x00000000        0x0 contiki-srf06-cc26xx.a(dbg-sprintf.o)
 .text          0x00000000        0x0 contiki-srf06-cc26xx.a(strformat.o)
 .data          0x00000000        0x0 contiki-srf06-cc26xx.a(strformat.o)
 .bss           0x00000000        0x0 contiki-srf06-cc26xx.a(strformat.o)
 .text.format_str
                0x00000000       0x20 contiki-srf06-cc26xx.a(strformat.o)
 .text          0x00000000        0x0 contiki-srf06-cc26xx.a(autostart.o)
 .data          0x00000000        0x0 contiki-srf06-cc26xx.a(autostart.o)
 .bss           0x00000000        0x0 contiki-srf06-cc26xx.a(autostart.o)
 .text.autostart_exit
                0x00000000       0x18 contiki-srf06-cc26xx.a(autostart.o)
 .text          0x00000000        0x0 contiki-srf06-cc26xx.a(ctimer.o)
 .data          0x00000000        0x0 contiki-srf06-cc26xx.a(ctimer.o)
 .bss           0x00000000        0x0 contiki-srf06-cc26xx.a(ctimer.o)
 .text.ctimer_expired
                0x00000000       0x40 contiki-srf06-cc26xx.a(ctimer.o)
 .text          0x00000000        0x0 contiki-srf06-cc26xx.a(energest.o)
 .data          0x00000000        0x0 contiki-srf06-cc26xx.a(energest.o)
 .bss           0x00000000        0x0 contiki-srf06-cc26xx.a(energest.o)
 .text.energest_type_set
                0x00000000        0x4 contiki-srf06-cc26xx.a(energest.o)
 .text.energest_type_time
                0x00000000        0x4 contiki-srf06-cc26xx.a(energest.o)
 .text.energest_flush
                0x00000000        0x4 contiki-srf06-cc26xx.a(energest.o)
 .text          0x00000000        0x0 contiki-srf06-cc26xx.a(etimer.o)
 .data          0x00000000        0x0 contiki-srf06-cc26xx.a(etimer.o)
 .bss           0x00000000        0x0 contiki-srf06-cc26xx.a(etimer.o)
 .text.etimer_reset_with_new_interval
                0x00000000       0x18 contiki-srf06-cc26xx.a(etimer.o)
 .text.etimer_adjust
                0x00000000        0xc contiki-srf06-cc26xx.a(etimer.o)
 .text.etimer_start_time
                0x00000000        0x4 contiki-srf06-cc26xx.a(etimer.o)
 .text          0x00000000        0x0 contiki-srf06-cc26xx.a(process.o)
 .data          0x00000000        0x0 contiki-srf06-cc26xx.a(process.o)
 .bss           0x00000000        0x0 contiki-srf06-cc26xx.a(process.o)
 .text.process_is_running
                0x00000000        0xc contiki-srf06-cc26xx.a(process.o)
 .text          0x00000000        0x0 contiki-srf06-cc26xx.a(rtimer.o)
 .data          0x00000000        0x0 contiki-srf06-cc26xx.a(rtimer.o)
 .bss           0x00000000        0x0 contiki-srf06-cc26xx.a(rtimer.o)
 .text          0x00000000        0x0 contiki-srf06-cc26xx.a(timer.o)
 .data          0x00000000        0x0 contiki-srf06-cc26xx.a(timer.o)
 .bss           0x00000000        0x0 contiki-srf06-cc26xx.a(timer.o)
 .text.timer_remaining
                0x00000000       0x10 contiki-srf06-cc26xx.a(timer.o)
 .text          0x00000000        0x0 contiki-srf06-cc26xx.a(serial-line.o)
 .data          0x00000000        0x0 contiki-srf06-cc26xx.a(serial-line.o)
 .bss           0x00000000        0x0 contiki-srf06-cc26xx.a(serial-line.o)
 .text          0x00000000        0x0 contiki-srf06-cc26xx.a(list.o)
 .data          0x00000000        0x0 contiki-srf06-cc26xx.a(list.o)
 .bss           0x00000000        0x0 contiki-srf06-cc26xx.a(list.o)
 .text.list_copy
                0x00000000        0x8 contiki-srf06-cc26xx.a(list.o)
 .text.list_chop
                0x00000000       0x24 contiki-srf06-cc26xx.a(list.o)
 .text.list_pop
                0x00000000        0xc contiki-srf06-cc26xx.a(list.o)
 .text.list_insert
                0x00000000       0x4c contiki-srf06-cc26xx.a(list.o)
 .text          0x00000000        0x0 contiki-srf06-cc26xx.a(memb.o)
 .data          0x00000000        0x0 contiki-srf06-cc26xx.a(memb.o)
 .bss           0x00000000        0x0 contiki-srf06-cc26xx.a(memb.o)
 .text          0x00000000        0x0 contiki-srf06-cc26xx.a(random.o)
 .data          0x00000000        0x0 contiki-srf06-cc26xx.a(random.o)
 .bss           0x00000000        0x0 contiki-srf06-cc26xx.a(random.o)
 .text          0x00000000        0x0 contiki-srf06-cc26xx.a(ringbuf.o)
 .data          0x00000000        0x0 contiki-srf06-cc26xx.a(ringbuf.o)
 .bss           0x00000000        0x0 contiki-srf06-cc26xx.a(ringbuf.o)
 .text.ringbuf_size
                0x00000000        0x8 contiki-srf06-cc26xx.a(ringbuf.o)
 .text.ringbuf_elements
                0x00000000        0xc contiki-srf06-cc26xx.a(ringbuf.o)
 .text          0x00000000        0x0 contiki-srf06-cc26xx.a(sicslowpan.o)
 .data          0x00000000        0x0 contiki-srf06-cc26xx.a(sicslowpan.o)
 .bss           0x00000000        0x0 contiki-srf06-cc26xx.a(sicslowpan.o)
 .text.rime_sniffer_add
                0x00000000        0xc contiki-srf06-cc26xx.a(sicslowpan.o)
 .text.rime_sniffer_remove
                0x00000000        0xc contiki-srf06-cc26xx.a(sicslowpan.o)
 .text          0x00000000        0x0 contiki-srf06-cc26xx.a(uip6.o)
 .data          0x00000000        0x0 contiki-srf06-cc26xx.a(uip6.o)
 .bss           0x00000000        0x0 contiki-srf06-cc26xx.a(uip6.o)
 .text.uip_chksum
                0x00000000       0x14 contiki-srf06-cc26xx.a(uip6.o)
 .text.uip_ipchksum
                0x00000000       0x48 contiki-srf06-cc26xx.a(uip6.o)
 .text.uip_tcpchksum
                0x00000000        0x8 contiki-srf06-cc26xx.a(uip6.o)
 .text.uip_udpchksum
                0x00000000        0x8 contiki-srf06-cc26xx.a(uip6.o)
 .text          0x00000000        0x0 contiki-srf06-cc26xx.a(uip-ds6.o)
 .data          0x00000000        0x0 contiki-srf06-cc26xx.a(uip-ds6.o)
 .bss           0x00000000        0x0 contiki-srf06-cc26xx.a(uip-ds6.o)
 .text.uip_ds6_prefix_rm
                0x00000000        0x8 contiki-srf06-cc26xx.a(uip-ds6.o)
 .text.uip_ds6_prefix_lookup
                0x00000000       0x2c contiki-srf06-cc26xx.a(uip-ds6.o)
 .text.uip_ds6_maddr_rm
                0x00000000        0x8 contiki-srf06-cc26xx.a(uip-ds6.o)
 .text.uip_ds6_aaddr_add
                0x00000000       0x50 contiki-srf06-cc26xx.a(uip-ds6.o)
 .text.uip_ds6_aaddr_rm
                0x00000000        0x8 contiki-srf06-cc26xx.a(uip-ds6.o)
 .text.uip_ds6_aaddr_lookup
                0x00000000       0x30 contiki-srf06-cc26xx.a(uip-ds6.o)
 .text.get_match_length
                0x00000000       0x44 contiki-srf06-cc26xx.a(uip-ds6.o)
 .bss.locaaddr  0x00000000        0x4 contiki-srf06-cc26xx.a(uip-ds6.o)
 .text          0x00000000        0x0 contiki-srf06-cc26xx.a(uip-ds6-nbr.o)
 .data          0x00000000        0x0 contiki-srf06-cc26xx.a(uip-ds6-nbr.o)
 .bss           0x00000000        0x0 contiki-srf06-cc26xx.a(uip-ds6-nbr.o)
 .text.uip_ds6_nbr_get_ipaddr
                0x00000000        0x4 contiki-srf06-cc26xx.a(uip-ds6-nbr.o)
 .text.uip_ds6_nbr_num
                0x00000000       0x28 contiki-srf06-cc26xx.a(uip-ds6-nbr.o)
 .text.uip_ds6_nbr_ll_lookup
                0x00000000       0x10 contiki-srf06-cc26xx.a(uip-ds6-nbr.o)
 .text.uip_ds6_get_least_lifetime_neighbor
                0x00000000       0x48 contiki-srf06-cc26xx.a(uip-ds6-nbr.o)
 .text          0x00000000        0x0 contiki-srf06-cc26xx.a(uip-ds6-route.o)
 .data          0x00000000        0x0 contiki-srf06-cc26xx.a(uip-ds6-route.o)
 .bss           0x00000000        0x0 contiki-srf06-cc26xx.a(uip-ds6-route.o)
 .text.uip_ds6_notification_add
                0x00000000       0x14 contiki-srf06-cc26xx.a(uip-ds6-route.o)
 .text.uip_ds6_notification_rm
                0x00000000        0xc contiki-srf06-cc26xx.a(uip-ds6-route.o)
 .text.uip_ds6_route_num_routes
                0x00000000        0xc contiki-srf06-cc26xx.a(uip-ds6-route.o)
 .text.uip_ds6_route_rm_by_nexthop
                0x00000000       0x1c contiki-srf06-cc26xx.a(uip-ds6-route.o)
 .text          0x00000000        0x0 contiki-srf06-cc26xx.a(uip-icmp6.o)
 .data          0x00000000        0x0 contiki-srf06-cc26xx.a(uip-icmp6.o)
 .bss           0x00000000        0x0 contiki-srf06-cc26xx.a(uip-icmp6.o)
 .text.uip_icmp6_echo_reply_callback_rm
                0x00000000        0xc contiki-srf06-cc26xx.a(uip-icmp6.o)
 .text          0x00000000        0x0 contiki-srf06-cc26xx.a(uip-nd6.o)
 .data          0x00000000        0x0 contiki-srf06-cc26xx.a(uip-nd6.o)
 .bss           0x00000000        0x0 contiki-srf06-cc26xx.a(uip-nd6.o)
 .text.uip_nd6_ns_output
                0x00000000      0x160 contiki-srf06-cc26xx.a(uip-nd6.o)
 .text          0x00000000        0x0 contiki-srf06-cc26xx.a(psock.o)
 .data          0x00000000        0x0 contiki-srf06-cc26xx.a(psock.o)
 .bss           0x00000000        0x0 contiki-srf06-cc26xx.a(psock.o)
 .text.psock_generator_send
                0x00000000       0x6c contiki-srf06-cc26xx.a(psock.o)
 .text.psock_newdata
                0x00000000       0x2c contiki-srf06-cc26xx.a(psock.o)
 .text          0x00000000        0x0 contiki-srf06-cc26xx.a(tcpip.o)
 .data          0x00000000        0x0 contiki-srf06-cc26xx.a(tcpip.o)
 .bss           0x00000000        0x0 contiki-srf06-cc26xx.a(tcpip.o)
 .text.tcpip_output
                0x00000000       0x10 contiki-srf06-cc26xx.a(tcpip.o)
 .text.udp_attach
                0x00000000       0x10 contiki-srf06-cc26xx.a(tcpip.o)
 .text.udp_broadcast_new
                0x00000000       0x50 contiki-srf06-cc26xx.a(tcpip.o)
 .text.icmp6_new
                0x00000000       0x20 contiki-srf06-cc26xx.a(tcpip.o)
 .text.tcpip_poll_udp
                0x00000000       0x10 contiki-srf06-cc26xx.a(tcpip.o)
 .text.tcpip_poll_tcp
                0x00000000       0x10 contiki-srf06-cc26xx.a(tcpip.o)
 .text          0x00000000        0x0 contiki-srf06-cc26xx.a(tcp-socket.o)
 .data          0x00000000        0x0 contiki-srf06-cc26xx.a(tcp-socket.o)
 .bss           0x00000000        0x0 contiki-srf06-cc26xx.a(tcp-socket.o)
 .text.tcp_socket_listen
                0x00000000       0x3c contiki-srf06-cc26xx.a(tcp-socket.o)
 .text.tcp_socket_send_str
                0x00000000       0x1c contiki-srf06-cc26xx.a(tcp-socket.o)
 .text.tcp_socket_max_sendlen
                0x00000000        0x8 contiki-srf06-cc26xx.a(tcp-socket.o)
 .text          0x00000000        0x0 contiki-srf06-cc26xx.a(uip-debug.o)
 .data          0x00000000        0x0 contiki-srf06-cc26xx.a(uip-debug.o)
 .bss           0x00000000        0x0 contiki-srf06-cc26xx.a(uip-debug.o)
 .text.uip_debug_lladdr_print
                0x00000000       0x40 contiki-srf06-cc26xx.a(uip-debug.o)
 .text          0x00000000        0x0 contiki-srf06-cc26xx.a(uiplib.o)
 .data          0x00000000        0x0 contiki-srf06-cc26xx.a(uiplib.o)
 .bss           0x00000000        0x0 contiki-srf06-cc26xx.a(uiplib.o)
 .text.uiplib_ip4addrconv
                0x00000000       0x60 contiki-srf06-cc26xx.a(uiplib.o)
 .text          0x00000000        0x0 contiki-srf06-cc26xx.a(uip-udp-packet.)
 .data          0x00000000        0x0 contiki-srf06-cc26xx.a(uip-udp-packet.)
 .bss           0x00000000        0x0 contiki-srf06-cc26xx.a(uip-udp-packet.)
 .text          0x00000000        0x0 contiki-srf06-cc26xx.a(rpl.o)
 .data          0x00000000        0x0 contiki-srf06-cc26xx.a(rpl.o)
 .bss           0x00000000        0x0 contiki-srf06-cc26xx.a(rpl.o)
 .text.rpl_set_mode
                0x00000000       0x4c contiki-srf06-cc26xx.a(rpl.o)
 .text          0x00000000        0x0 contiki-srf06-cc26xx.a(rpl-dag.o)
 .data          0x00000000        0x0 contiki-srf06-cc26xx.a(rpl-dag.o)
 .bss           0x00000000        0x0 contiki-srf06-cc26xx.a(rpl-dag.o)
 .text.rpl_print_neighbor_list
                0x00000000       0xfc contiki-srf06-cc26xx.a(rpl-dag.o)
 .text.rpl_get_parent_rank
                0x00000000       0x18 contiki-srf06-cc26xx.a(rpl-dag.o)
 .text.rpl_get_parent_link_metric
                0x00000000       0x18 contiki-srf06-cc26xx.a(rpl-dag.o)
 .text.rpl_set_default_instance
                0x00000000        0xc contiki-srf06-cc26xx.a(rpl-dag.o)
 .text.rpl_get_default_instance
                0x00000000        0xc contiki-srf06-cc26xx.a(rpl-dag.o)
 .text.rpl_free_instance
                0x00000000       0x74 contiki-srf06-cc26xx.a(rpl-dag.o)
 .text.rpl_set_root
                0x00000000      0x11c contiki-srf06-cc26xx.a(rpl-dag.o)
 .text.rpl_find_of
                0x00000000       0x14 contiki-srf06-cc26xx.a(rpl-dag.o)
 .rodata.str1.4
                0x00000000       0x70 contiki-srf06-cc26xx.a(rpl-dag.o)
 .text          0x00000000        0x0 contiki-srf06-cc26xx.a(rpl-ext-header.)
 .data          0x00000000        0x0 contiki-srf06-cc26xx.a(rpl-ext-header.)
 .bss           0x00000000        0x0 contiki-srf06-cc26xx.a(rpl-ext-header.)
 .text.rpl_remove_header
                0x00000000       0x5c contiki-srf06-cc26xx.a(rpl-ext-header.)
 .text          0x00000000        0x0 contiki-srf06-cc26xx.a(rpl-icmp6.o)
 .data          0x00000000        0x0 contiki-srf06-cc26xx.a(rpl-icmp6.o)
 .bss           0x00000000        0x0 contiki-srf06-cc26xx.a(rpl-icmp6.o)
 .text          0x00000000        0x0 contiki-srf06-cc26xx.a(rpl-mrhof.o)
 .data          0x00000000        0x0 contiki-srf06-cc26xx.a(rpl-mrhof.o)
 .bss           0x00000000        0x0 contiki-srf06-cc26xx.a(rpl-mrhof.o)
 .text          0x00000000        0x0 contiki-srf06-cc26xx.a(rpl-timers.o)
 .data          0x00000000        0x0 contiki-srf06-cc26xx.a(rpl-timers.o)
 .bss           0x00000000        0x0 contiki-srf06-cc26xx.a(rpl-timers.o)
 .text.rpl_schedule_dao_immediately
                0x00000000        0x8 contiki-srf06-cc26xx.a(rpl-timers.o)
 .text.rpl_cancel_dao
                0x00000000       0x18 contiki-srf06-cc26xx.a(rpl-timers.o)
 .text          0x00000000        0x0 contiki-srf06-cc26xx.a(aon_batmon.o)
 .data          0x00000000        0x0 contiki-srf06-cc26xx.a(aon_batmon.o)
 .bss           0x00000000        0x0 contiki-srf06-cc26xx.a(aon_batmon.o)
 .text          0x00000000        0x0 contiki-srf06-cc26xx.a(aon_rtc.o)
 .data          0x00000000        0x0 contiki-srf06-cc26xx.a(aon_rtc.o)
 .bss           0x00000000        0x0 contiki-srf06-cc26xx.a(aon_rtc.o)
 .text.NOROM_AONRTCCurrent64BitValueGet
                0x00000000       0x1c contiki-srf06-cc26xx.a(aon_rtc.o)
 .text          0x00000000        0x0 contiki-srf06-cc26xx.a(chipinfo.o)
 .data          0x00000000        0x0 contiki-srf06-cc26xx.a(chipinfo.o)
 .bss           0x00000000        0x0 contiki-srf06-cc26xx.a(chipinfo.o)
 .text.ChipInfo_GetPackageType
                0x00000000       0x18 contiki-srf06-cc26xx.a(chipinfo.o)
 .text          0x00000000        0x0 contiki-srf06-cc26xx.a(cpu.o)
 .data          0x00000000        0x0 contiki-srf06-cc26xx.a(cpu.o)
 .bss           0x00000000        0x0 contiki-srf06-cc26xx.a(cpu.o)
 .text.NOROM_CPUprimask
                0x00000000        0x8 contiki-srf06-cc26xx.a(cpu.o)
 .text.NOROM_CPUbasepriGet
                0x00000000        0x8 contiki-srf06-cc26xx.a(cpu.o)
 .text          0x00000000        0x0 contiki-srf06-cc26xx.a(ddi.o)
 .data          0x00000000        0x0 contiki-srf06-cc26xx.a(ddi.o)
 .bss           0x00000000        0x0 contiki-srf06-cc26xx.a(ddi.o)
 .text.NOROM_DDI16BitWrite
                0x00000000       0x48 contiki-srf06-cc26xx.a(ddi.o)
 .text.NOROM_DDI16BitRead
                0x00000000       0x38 contiki-srf06-cc26xx.a(ddi.o)
 .text          0x00000000        0x0 contiki-srf06-cc26xx.a(osc.o)
 .data          0x00000000        0x0 contiki-srf06-cc26xx.a(osc.o)
 .bss           0x00000000        0x0 contiki-srf06-cc26xx.a(osc.o)
 .text.OSCHF_GetStartupTime
                0x00000000       0x98 contiki-srf06-cc26xx.a(osc.o)
 .text.OSCHF_TurnOnXosc
                0x00000000       0x18 contiki-srf06-cc26xx.a(osc.o)
 .text.OSCHF_AttemptToSwitchToXosc
                0x00000000       0x60 contiki-srf06-cc26xx.a(osc.o)
 .text.OSCHF_SwitchToRcOscTurnOffXosc
                0x00000000       0x3c contiki-srf06-cc26xx.a(osc.o)
 .bss.oscHfGlobals
                0x00000000       0x14 contiki-srf06-cc26xx.a(osc.o)
 .text          0x00000000        0x0 contiki-srf06-cc26xx.a(pwr_ctrl.o)
 .data          0x00000000        0x0 contiki-srf06-cc26xx.a(pwr_ctrl.o)
 .bss           0x00000000        0x0 contiki-srf06-cc26xx.a(pwr_ctrl.o)
 .text.NOROM_PowerCtrlStateSet
                0x00000000      0x184 contiki-srf06-cc26xx.a(pwr_ctrl.o)
 .text          0x00000000        0x0 contiki-srf06-cc26xx.a(setup.o)
 .data          0x00000000        0x0 contiki-srf06-cc26xx.a(setup.o)
 .bss           0x00000000        0x0 contiki-srf06-cc26xx.a(setup.o)
 .text          0x00000000        0x0 contiki-srf06-cc26xx.a(sys_ctrl.o)
 .data          0x00000000        0x0 contiki-srf06-cc26xx.a(sys_ctrl.o)
 .bss           0x00000000        0x0 contiki-srf06-cc26xx.a(sys_ctrl.o)
 .text.NOROM_SysCtrlPowerEverything
                0x00000000       0xf4 contiki-srf06-cc26xx.a(sys_ctrl.o)
 .text.NOROM_SysCtrlStandby
                0x00000000       0x30 contiki-srf06-cc26xx.a(sys_ctrl.o)
 .text.NOROM_SysCtrlPowerdown
                0x00000000       0x4c contiki-srf06-cc26xx.a(sys_ctrl.o)
 .text.NOROM_SysCtrlShutdown
                0x00000000       0x4c contiki-srf06-cc26xx.a(sys_ctrl.o)
 .text.NOROM_SysCtrlResetSourceGet
                0x00000000       0x18 contiki-srf06-cc26xx.a(sys_ctrl.o)
 .rodata.g_pui32ModuleCG
                0x00000000       0x34 contiki-srf06-cc26xx.a(sys_ctrl.o)
 .text          0x00000000        0x0 contiki-srf06-cc26xx.a(linkaddr.o)
 .data          0x00000000        0x0 contiki-srf06-cc26xx.a(linkaddr.o)
 .bss           0x00000000        0x0 contiki-srf06-cc26xx.a(linkaddr.o)
 .text.linkaddr_set_node_addr
                0x00000000       0x10 contiki-srf06-cc26xx.a(linkaddr.o)
 .text          0x00000000        0x0 contiki-srf06-cc26xx.a(nbr-table.o)
 .data          0x00000000        0x0 contiki-srf06-cc26xx.a(nbr-table.o)
 .bss           0x00000000        0x0 contiki-srf06-cc26xx.a(nbr-table.o)
 .text          0x00000000        0x0 contiki-srf06-cc26xx.a(netstack.o)
 .data          0x00000000        0x0 contiki-srf06-cc26xx.a(netstack.o)
 .bss           0x00000000        0x0 contiki-srf06-cc26xx.a(netstack.o)
 .text          0x00000000        0x0 contiki-srf06-cc26xx.a(packetbuf.o)
 .data          0x00000000        0x0 contiki-srf06-cc26xx.a(packetbuf.o)
 .bss           0x00000000        0x0 contiki-srf06-cc26xx.a(packetbuf.o)
 .text.packetbuf_clear_hdr
                0x00000000        0xc contiki-srf06-cc26xx.a(packetbuf.o)
 .text.packetbuf_compact
                0x00000000       0x34 contiki-srf06-cc26xx.a(packetbuf.o)
 .text.packetbuf_copyto_hdr
                0x00000000       0x20 contiki-srf06-cc26xx.a(packetbuf.o)
 .text.packetbuf_hdr_remove
                0x00000000       0x10 contiki-srf06-cc26xx.a(packetbuf.o)
 .text.packetbuf_hdrlen
                0x00000000       0x1c contiki-srf06-cc26xx.a(packetbuf.o)
 .text          0x00000000        0x0 contiki-srf06-cc26xx.a(queuebuf.o)
 .data          0x00000000        0x0 contiki-srf06-cc26xx.a(queuebuf.o)
 .bss           0x00000000        0x0 contiki-srf06-cc26xx.a(queuebuf.o)
 .text.queuebuf_dataptr
                0x00000000       0x18 contiki-srf06-cc26xx.a(queuebuf.o)
 .text.queuebuf_datalen
                0x00000000        0x8 contiki-srf06-cc26xx.a(queuebuf.o)
 .text.queuebuf_addr
                0x00000000        0xc contiki-srf06-cc26xx.a(queuebuf.o)
 .text.queuebuf_debug_print
                0x00000000        0x4 contiki-srf06-cc26xx.a(queuebuf.o)
 .text          0x00000000        0x0 contiki-srf06-cc26xx.a(csma.o)
 .data          0x00000000        0x0 contiki-srf06-cc26xx.a(csma.o)
 .bss           0x00000000        0x0 contiki-srf06-cc26xx.a(csma.o)
 .text          0x00000000        0x0 contiki-srf06-cc26xx.a(framer-802154.o)
 .data          0x00000000        0x0 contiki-srf06-cc26xx.a(framer-802154.o)
 .bss           0x00000000        0x0 contiki-srf06-cc26xx.a(framer-802154.o)
 .text          0x00000000        0x0 contiki-srf06-cc26xx.a(mac.o)
 .data          0x00000000        0x0 contiki-srf06-cc26xx.a(mac.o)
 .bss           0x00000000        0x0 contiki-srf06-cc26xx.a(mac.o)
 .text          0x00000000        0x0 contiki-srf06-cc26xx.a(contikimac.o)
 .data          0x00000000        0x0 contiki-srf06-cc26xx.a(contikimac.o)
 .bss           0x00000000        0x0 contiki-srf06-cc26xx.a(contikimac.o)
 .text.contikimac_debug_print
                0x00000000        0x4 contiki-srf06-cc26xx.a(contikimac.o)
 .text          0x00000000        0x0 contiki-srf06-cc26xx.a(nullsec.o)
 .data          0x00000000        0x0 contiki-srf06-cc26xx.a(nullsec.o)
 .bss           0x00000000        0x0 contiki-srf06-cc26xx.a(nullsec.o)
 .text          0x00000000        0x0 contiki-srf06-cc26xx.a(er-coap.o)
 .data          0x00000000        0x0 contiki-srf06-cc26xx.a(er-coap.o)
 .bss           0x00000000        0x0 contiki-srf06-cc26xx.a(er-coap.o)
 .text.coap_set_header_accept
                0x00000000       0x10 contiki-srf06-cc26xx.a(er-coap.o)
 .text.coap_get_header_etag
                0x00000000       0x1c contiki-srf06-cc26xx.a(er-coap.o)
 .text.coap_set_header_if_match
                0x00000000       0x24 contiki-srf06-cc26xx.a(er-coap.o)
 .text.coap_set_header_if_none_match
                0x00000000       0x10 contiki-srf06-cc26xx.a(er-coap.o)
 .text.coap_get_header_proxy_uri
                0x00000000       0x18 contiki-srf06-cc26xx.a(er-coap.o)
 .text.coap_set_header_proxy_uri
                0x00000000       0x18 contiki-srf06-cc26xx.a(er-coap.o)
 .text.coap_set_header_uri_host
                0x00000000       0x18 contiki-srf06-cc26xx.a(er-coap.o)
 .text.coap_set_header_uri_query
                0x00000000       0x2c contiki-srf06-cc26xx.a(er-coap.o)
 .text.coap_get_header_location_path
                0x00000000       0x14 contiki-srf06-cc26xx.a(er-coap.o)
 .text.coap_get_header_location_query
                0x00000000       0x18 contiki-srf06-cc26xx.a(er-coap.o)
 .text.coap_set_header_location_query
                0x00000000       0x28 contiki-srf06-cc26xx.a(er-coap.o)
 .text.coap_get_header_observe
                0x00000000       0x18 contiki-srf06-cc26xx.a(er-coap.o)
 .text.coap_get_header_block1
                0x00000000       0x40 contiki-srf06-cc26xx.a(er-coap.o)
 .text.coap_set_header_block1
                0x00000000       0x34 contiki-srf06-cc26xx.a(er-coap.o)
 .text.coap_get_header_size1
                0x00000000       0x1c contiki-srf06-cc26xx.a(er-coap.o)
 .text.coap_set_header_size1
                0x00000000       0x10 contiki-srf06-cc26xx.a(er-coap.o)
 .text          0x00000000        0x0 contiki-srf06-cc26xx.a(sensor-common.o)
 .data          0x00000000        0x0 contiki-srf06-cc26xx.a(sensor-common.o)
 .bss           0x00000000        0x0 contiki-srf06-cc26xx.a(sensor-common.o)
 .text          0x00000000        0x0 contiki-srf06-cc26xx.a(rf-core.o)
 .data          0x00000000        0x0 contiki-srf06-cc26xx.a(rf-core.o)
 .bss           0x00000000        0x0 contiki-srf06-cc26xx.a(rf-core.o)
 .text.rf_core_start_rat
                0x00000000       0x20 contiki-srf06-cc26xx.a(rf-core.o)
 .text          0x00000000        0x0 contiki-srf06-cc26xx.a(stimer.o)
 .data          0x00000000        0x0 contiki-srf06-cc26xx.a(stimer.o)
 .bss           0x00000000        0x0 contiki-srf06-cc26xx.a(stimer.o)
 .text.stimer_reset
                0x00000000        0xc contiki-srf06-cc26xx.a(stimer.o)
 .text.stimer_restart
                0x00000000        0xc contiki-srf06-cc26xx.a(stimer.o)
 .text.stimer_remaining
                0x00000000       0x10 contiki-srf06-cc26xx.a(stimer.o)
 .text.stimer_elapsed
                0x00000000       0x10 contiki-srf06-cc26xx.a(stimer.o)
 .text          0x00000000        0x0 contiki-srf06-cc26xx.a(frame802154.o)
 .data          0x00000000        0x0 contiki-srf06-cc26xx.a(frame802154.o)
 .bss           0x00000000        0x0 contiki-srf06-cc26xx.a(frame802154.o)
 .text.frame802154_set_pan_id
                0x00000000        0xc contiki-srf06-cc26xx.a(frame802154.o)
 .text.frame802154_check_dest_panid
                0x00000000       0x3c contiki-srf06-cc26xx.a(frame802154.o)
 .text.frame802154_extract_linkaddr
                0x00000000       0x98 contiki-srf06-cc26xx.a(frame802154.o)
 .text          0x00000000        0x0 contiki-srf06-cc26xx.a(mac-sequence.o)
 .data          0x00000000        0x0 contiki-srf06-cc26xx.a(mac-sequence.o)
 .bss           0x00000000        0x0 contiki-srf06-cc26xx.a(mac-sequence.o)
 .text          0x00000000        0x0 /home/paul/gcc-arm-none-eabi-5_2-2015q4/bin/../lib/gcc/arm-none-eabi/5.2.1/../../../../arm-none-eabi/lib/armv7-m/libm.a(lib_a-w_exp2.o)
 .data          0x00000000        0x0 /home/paul/gcc-arm-none-eabi-5_2-2015q4/bin/../lib/gcc/arm-none-eabi/5.2.1/../../../../arm-none-eabi/lib/armv7-m/libm.a(lib_a-w_exp2.o)
 .bss           0x00000000        0x0 /home/paul/gcc-arm-none-eabi-5_2-2015q4/bin/../lib/gcc/arm-none-eabi/5.2.1/../../../../arm-none-eabi/lib/armv7-m/libm.a(lib_a-w_exp2.o)
 .text          0x00000000        0x0 /home/paul/gcc-arm-none-eabi-5_2-2015q4/bin/../lib/gcc/arm-none-eabi/5.2.1/../../../../arm-none-eabi/lib/armv7-m/libm.a(lib_a-w_pow.o)
 .data          0x00000000        0x0 /home/paul/gcc-arm-none-eabi-5_2-2015q4/bin/../lib/gcc/arm-none-eabi/5.2.1/../../../../arm-none-eabi/lib/armv7-m/libm.a(lib_a-w_pow.o)
 .bss           0x00000000        0x0 /home/paul/gcc-arm-none-eabi-5_2-2015q4/bin/../lib/gcc/arm-none-eabi/5.2.1/../../../../arm-none-eabi/lib/armv7-m/libm.a(lib_a-w_pow.o)
 .text          0x00000000        0x0 /home/paul/gcc-arm-none-eabi-5_2-2015q4/bin/../lib/gcc/arm-none-eabi/5.2.1/../../../../arm-none-eabi/lib/armv7-m/libm.a(lib_a-e_pow.o)
 .data          0x00000000        0x0 /home/paul/gcc-arm-none-eabi-5_2-2015q4/bin/../lib/gcc/arm-none-eabi/5.2.1/../../../../arm-none-eabi/lib/armv7-m/libm.a(lib_a-e_pow.o)
 .bss           0x00000000        0x0 /home/paul/gcc-arm-none-eabi-5_2-2015q4/bin/../lib/gcc/arm-none-eabi/5.2.1/../../../../arm-none-eabi/lib/armv7-m/libm.a(lib_a-e_pow.o)
 .text          0x00000000        0x0 /home/paul/gcc-arm-none-eabi-5_2-2015q4/bin/../lib/gcc/arm-none-eabi/5.2.1/../../../../arm-none-eabi/lib/armv7-m/libm.a(lib_a-e_sqrt.o)
 .data          0x00000000        0x0 /home/paul/gcc-arm-none-eabi-5_2-2015q4/bin/../lib/gcc/arm-none-eabi/5.2.1/../../../../arm-none-eabi/lib/armv7-m/libm.a(lib_a-e_sqrt.o)
 .bss           0x00000000        0x0 /home/paul/gcc-arm-none-eabi-5_2-2015q4/bin/../lib/gcc/arm-none-eabi/5.2.1/../../../../arm-none-eabi/lib/armv7-m/libm.a(lib_a-e_sqrt.o)
 .text          0x00000000        0x0 /home/paul/gcc-arm-none-eabi-5_2-2015q4/bin/../lib/gcc/arm-none-eabi/5.2.1/../../../../arm-none-eabi/lib/armv7-m/libm.a(lib_a-s_fabs.o)
 .data          0x00000000        0x0 /home/paul/gcc-arm-none-eabi-5_2-2015q4/bin/../lib/gcc/arm-none-eabi/5.2.1/../../../../arm-none-eabi/lib/armv7-m/libm.a(lib_a-s_fabs.o)
 .bss           0x00000000        0x0 /home/paul/gcc-arm-none-eabi-5_2-2015q4/bin/../lib/gcc/arm-none-eabi/5.2.1/../../../../arm-none-eabi/lib/armv7-m/libm.a(lib_a-s_fabs.o)
 .text          0x00000000        0x0 /home/paul/gcc-arm-none-eabi-5_2-2015q4/bin/../lib/gcc/arm-none-eabi/5.2.1/../../../../arm-none-eabi/lib/armv7-m/libm.a(lib_a-s_finite.o)
 .data          0x00000000        0x0 /home/paul/gcc-arm-none-eabi-5_2-2015q4/bin/../lib/gcc/arm-none-eabi/5.2.1/../../../../arm-none-eabi/lib/armv7-m/libm.a(lib_a-s_finite.o)
 .bss           0x00000000        0x0 /home/paul/gcc-arm-none-eabi-5_2-2015q4/bin/../lib/gcc/arm-none-eabi/5.2.1/../../../../arm-none-eabi/lib/armv7-m/libm.a(lib_a-s_finite.o)
 .text          0x00000000        0x0 /home/paul/gcc-arm-none-eabi-5_2-2015q4/bin/../lib/gcc/arm-none-eabi/5.2.1/../../../../arm-none-eabi/lib/armv7-m/libm.a(lib_a-s_fpclassify.o)
 .data          0x00000000        0x0 /home/paul/gcc-arm-none-eabi-5_2-2015q4/bin/../lib/gcc/arm-none-eabi/5.2.1/../../../../arm-none-eabi/lib/armv7-m/libm.a(lib_a-s_fpclassify.o)
 .bss           0x00000000        0x0 /home/paul/gcc-arm-none-eabi-5_2-2015q4/bin/../lib/gcc/arm-none-eabi/5.2.1/../../../../arm-none-eabi/lib/armv7-m/libm.a(lib_a-s_fpclassify.o)
 .text          0x00000000        0x0 /home/paul/gcc-arm-none-eabi-5_2-2015q4/bin/../lib/gcc/arm-none-eabi/5.2.1/../../../../arm-none-eabi/lib/armv7-m/libm.a(lib_a-s_lib_ver.o)
 .data          0x00000000        0x0 /home/paul/gcc-arm-none-eabi-5_2-2015q4/bin/../lib/gcc/arm-none-eabi/5.2.1/../../../../arm-none-eabi/lib/armv7-m/libm.a(lib_a-s_lib_ver.o)
 .bss           0x00000000        0x0 /home/paul/gcc-arm-none-eabi-5_2-2015q4/bin/../lib/gcc/arm-none-eabi/5.2.1/../../../../arm-none-eabi/lib/armv7-m/libm.a(lib_a-s_lib_ver.o)
 .text          0x00000000        0x0 /home/paul/gcc-arm-none-eabi-5_2-2015q4/bin/../lib/gcc/arm-none-eabi/5.2.1/../../../../arm-none-eabi/lib/armv7-m/libm.a(lib_a-s_matherr.o)
 .data          0x00000000        0x0 /home/paul/gcc-arm-none-eabi-5_2-2015q4/bin/../lib/gcc/arm-none-eabi/5.2.1/../../../../arm-none-eabi/lib/armv7-m/libm.a(lib_a-s_matherr.o)
 .bss           0x00000000        0x0 /home/paul/gcc-arm-none-eabi-5_2-2015q4/bin/../lib/gcc/arm-none-eabi/5.2.1/../../../../arm-none-eabi/lib/armv7-m/libm.a(lib_a-s_matherr.o)
 .text          0x00000000        0x0 /home/paul/gcc-arm-none-eabi-5_2-2015q4/bin/../lib/gcc/arm-none-eabi/5.2.1/../../../../arm-none-eabi/lib/armv7-m/libm.a(lib_a-s_nan.o)
 .data          0x00000000        0x0 /home/paul/gcc-arm-none-eabi-5_2-2015q4/bin/../lib/gcc/arm-none-eabi/5.2.1/../../../../arm-none-eabi/lib/armv7-m/libm.a(lib_a-s_nan.o)
 .bss           0x00000000        0x0 /home/paul/gcc-arm-none-eabi-5_2-2015q4/bin/../lib/gcc/arm-none-eabi/5.2.1/../../../../arm-none-eabi/lib/armv7-m/libm.a(lib_a-s_nan.o)
 .text          0x00000000        0x0 /home/paul/gcc-arm-none-eabi-5_2-2015q4/bin/../lib/gcc/arm-none-eabi/5.2.1/../../../../arm-none-eabi/lib/armv7-m/libm.a(lib_a-s_rint.o)
 .data          0x00000000        0x0 /home/paul/gcc-arm-none-eabi-5_2-2015q4/bin/../lib/gcc/arm-none-eabi/5.2.1/../../../../arm-none-eabi/lib/armv7-m/libm.a(lib_a-s_rint.o)
 .bss           0x00000000        0x0 /home/paul/gcc-arm-none-eabi-5_2-2015q4/bin/../lib/gcc/arm-none-eabi/5.2.1/../../../../arm-none-eabi/lib/armv7-m/libm.a(lib_a-s_rint.o)
 .text          0x00000000        0x0 /home/paul/gcc-arm-none-eabi-5_2-2015q4/bin/../lib/gcc/arm-none-eabi/5.2.1/../../../../arm-none-eabi/lib/armv7-m/libm.a(lib_a-s_scalbn.o)
 .data          0x00000000        0x0 /home/paul/gcc-arm-none-eabi-5_2-2015q4/bin/../lib/gcc/arm-none-eabi/5.2.1/../../../../arm-none-eabi/lib/armv7-m/libm.a(lib_a-s_scalbn.o)
 .bss           0x00000000        0x0 /home/paul/gcc-arm-none-eabi-5_2-2015q4/bin/../lib/gcc/arm-none-eabi/5.2.1/../../../../arm-none-eabi/lib/armv7-m/libm.a(lib_a-s_scalbn.o)
 .text          0x00000000        0x0 /home/paul/gcc-arm-none-eabi-5_2-2015q4/bin/../lib/gcc/arm-none-eabi/5.2.1/../../../../arm-none-eabi/lib/armv7-m/libm.a(lib_a-s_copysign.o)
 .data          0x00000000        0x0 /home/paul/gcc-arm-none-eabi-5_2-2015q4/bin/../lib/gcc/arm-none-eabi/5.2.1/../../../../arm-none-eabi/lib/armv7-m/libm.a(lib_a-s_copysign.o)
 .bss           0x00000000        0x0 /home/paul/gcc-arm-none-eabi-5_2-2015q4/bin/../lib/gcc/arm-none-eabi/5.2.1/../../../../arm-none-eabi/lib/armv7-m/libm.a(lib_a-s_copysign.o)
 .data          0x00000000        0x0 /home/paul/gcc-arm-none-eabi-5_2-2015q4/bin/../lib/gcc/arm-none-eabi/5.2.1/armv7-m/libgcc.a(_arm_addsubdf3.o)
 .bss           0x00000000        0x0 /home/paul/gcc-arm-none-eabi-5_2-2015q4/bin/../lib/gcc/arm-none-eabi/5.2.1/armv7-m/libgcc.a(_arm_addsubdf3.o)
 .data          0x00000000        0x0 /home/paul/gcc-arm-none-eabi-5_2-2015q4/bin/../lib/gcc/arm-none-eabi/5.2.1/armv7-m/libgcc.a(_arm_muldivdf3.o)
 .bss           0x00000000        0x0 /home/paul/gcc-arm-none-eabi-5_2-2015q4/bin/../lib/gcc/arm-none-eabi/5.2.1/armv7-m/libgcc.a(_arm_muldivdf3.o)
 .data          0x00000000        0x0 /home/paul/gcc-arm-none-eabi-5_2-2015q4/bin/../lib/gcc/arm-none-eabi/5.2.1/armv7-m/libgcc.a(_arm_cmpdf2.o)
 .bss           0x00000000        0x0 /home/paul/gcc-arm-none-eabi-5_2-2015q4/bin/../lib/gcc/arm-none-eabi/5.2.1/armv7-m/libgcc.a(_arm_cmpdf2.o)
 .data          0x00000000        0x0 /home/paul/gcc-arm-none-eabi-5_2-2015q4/bin/../lib/gcc/arm-none-eabi/5.2.1/armv7-m/libgcc.a(_arm_truncdfsf2.o)
 .bss           0x00000000        0x0 /home/paul/gcc-arm-none-eabi-5_2-2015q4/bin/../lib/gcc/arm-none-eabi/5.2.1/armv7-m/libgcc.a(_arm_truncdfsf2.o)
 .data          0x00000000        0x0 /home/paul/gcc-arm-none-eabi-5_2-2015q4/bin/../lib/gcc/arm-none-eabi/5.2.1/armv7-m/libgcc.a(_arm_addsubsf3.o)
 .bss           0x00000000        0x0 /home/paul/gcc-arm-none-eabi-5_2-2015q4/bin/../lib/gcc/arm-none-eabi/5.2.1/armv7-m/libgcc.a(_arm_addsubsf3.o)
 .data          0x00000000        0x0 /home/paul/gcc-arm-none-eabi-5_2-2015q4/bin/../lib/gcc/arm-none-eabi/5.2.1/armv7-m/libgcc.a(_arm_muldivsf3.o)
 .bss           0x00000000        0x0 /home/paul/gcc-arm-none-eabi-5_2-2015q4/bin/../lib/gcc/arm-none-eabi/5.2.1/armv7-m/libgcc.a(_arm_muldivsf3.o)
 .data          0x00000000        0x0 /home/paul/gcc-arm-none-eabi-5_2-2015q4/bin/../lib/gcc/arm-none-eabi/5.2.1/armv7-m/libgcc.a(_arm_fixsfsi.o)
 .bss           0x00000000        0x0 /home/paul/gcc-arm-none-eabi-5_2-2015q4/bin/../lib/gcc/arm-none-eabi/5.2.1/armv7-m/libgcc.a(_arm_fixsfsi.o)
 .data          0x00000000        0x0 /home/paul/gcc-arm-none-eabi-5_2-2015q4/bin/../lib/gcc/arm-none-eabi/5.2.1/armv7-m/libgcc.a(_aeabi_uldivmod.o)
 .bss           0x00000000        0x0 /home/paul/gcc-arm-none-eabi-5_2-2015q4/bin/../lib/gcc/arm-none-eabi/5.2.1/armv7-m/libgcc.a(_aeabi_uldivmod.o)
 .data          0x00000000        0x0 /home/paul/gcc-arm-none-eabi-5_2-2015q4/bin/../lib/gcc/arm-none-eabi/5.2.1/armv7-m/libgcc.a(_udivmoddi4.o)
 .bss           0x00000000        0x0 /home/paul/gcc-arm-none-eabi-5_2-2015q4/bin/../lib/gcc/arm-none-eabi/5.2.1/armv7-m/libgcc.a(_udivmoddi4.o)
 .ARM.extab     0x00000000        0x0 /home/paul/gcc-arm-none-eabi-5_2-2015q4/bin/../lib/gcc/arm-none-eabi/5.2.1/armv7-m/libgcc.a(_udivmoddi4.o)
 .data          0x00000000        0x0 /home/paul/gcc-arm-none-eabi-5_2-2015q4/bin/../lib/gcc/arm-none-eabi/5.2.1/armv7-m/libgcc.a(_dvmd_tls.o)
 .bss           0x00000000        0x0 /home/paul/gcc-arm-none-eabi-5_2-2015q4/bin/../lib/gcc/arm-none-eabi/5.2.1/armv7-m/libgcc.a(_dvmd_tls.o)
 .text          0x00000000        0x0 /home/paul/gcc-arm-none-eabi-5_2-2015q4/bin/../lib/gcc/arm-none-eabi/5.2.1/../../../../arm-none-eabi/lib/armv7-m/libc.a(lib_a-atoi.o)
 .data          0x00000000        0x0 /home/paul/gcc-arm-none-eabi-5_2-2015q4/bin/../lib/gcc/arm-none-eabi/5.2.1/../../../../arm-none-eabi/lib/armv7-m/libc.a(lib_a-atoi.o)
 .bss           0x00000000        0x0 /home/paul/gcc-arm-none-eabi-5_2-2015q4/bin/../lib/gcc/arm-none-eabi/5.2.1/../../../../arm-none-eabi/lib/armv7-m/libc.a(lib_a-atoi.o)
 .text._atoi_r  0x00000000        0x8 /home/paul/gcc-arm-none-eabi-5_2-2015q4/bin/../lib/gcc/arm-none-eabi/5.2.1/../../../../arm-none-eabi/lib/armv7-m/libc.a(lib_a-atoi.o)
 .text          0x00000000        0x0 /home/paul/gcc-arm-none-eabi-5_2-2015q4/bin/../lib/gcc/arm-none-eabi/5.2.1/../../../../arm-none-eabi/lib/armv7-m/libc.a(lib_a-ctype_.o)
 .data          0x00000000        0x0 /home/paul/gcc-arm-none-eabi-5_2-2015q4/bin/../lib/gcc/arm-none-eabi/5.2.1/../../../../arm-none-eabi/lib/armv7-m/libc.a(lib_a-ctype_.o)
 .bss           0x00000000        0x0 /home/paul/gcc-arm-none-eabi-5_2-2015q4/bin/../lib/gcc/arm-none-eabi/5.2.1/../../../../arm-none-eabi/lib/armv7-m/libc.a(lib_a-ctype_.o)
 .text          0x00000000        0x0 /home/paul/gcc-arm-none-eabi-5_2-2015q4/bin/../lib/gcc/arm-none-eabi/5.2.1/../../../../arm-none-eabi/lib/armv7-m/libc.a(lib_a-errno.o)
 .data          0x00000000        0x0 /home/paul/gcc-arm-none-eabi-5_2-2015q4/bin/../lib/gcc/arm-none-eabi/5.2.1/../../../../arm-none-eabi/lib/armv7-m/libc.a(lib_a-errno.o)
 .bss           0x00000000        0x0 /home/paul/gcc-arm-none-eabi-5_2-2015q4/bin/../lib/gcc/arm-none-eabi/5.2.1/../../../../arm-none-eabi/lib/armv7-m/libc.a(lib_a-errno.o)
 .text          0x00000000        0x0 /home/paul/gcc-arm-none-eabi-5_2-2015q4/bin/../lib/gcc/arm-none-eabi/5.2.1/../../../../arm-none-eabi/lib/armv7-m/libc.a(lib_a-impure.o)
 .data          0x00000000        0x0 /home/paul/gcc-arm-none-eabi-5_2-2015q4/bin/../lib/gcc/arm-none-eabi/5.2.1/../../../../arm-none-eabi/lib/armv7-m/libc.a(lib_a-impure.o)
 .bss           0x00000000        0x0 /home/paul/gcc-arm-none-eabi-5_2-2015q4/bin/../lib/gcc/arm-none-eabi/5.2.1/../../../../arm-none-eabi/lib/armv7-m/libc.a(lib_a-impure.o)
 .rodata._global_impure_ptr
                0x00000000        0x4 /home/paul/gcc-arm-none-eabi-5_2-2015q4/bin/../lib/gcc/arm-none-eabi/5.2.1/../../../../arm-none-eabi/lib/armv7-m/libc.a(lib_a-impure.o)
 .text          0x00000000        0x0 /home/paul/gcc-arm-none-eabi-5_2-2015q4/bin/../lib/gcc/arm-none-eabi/5.2.1/../../../../arm-none-eabi/lib/armv7-m/libc.a(lib_a-memchr-stub.o)
 .data          0x00000000        0x0 /home/paul/gcc-arm-none-eabi-5_2-2015q4/bin/../lib/gcc/arm-none-eabi/5.2.1/../../../../arm-none-eabi/lib/armv7-m/libc.a(lib_a-memchr-stub.o)
 .bss           0x00000000        0x0 /home/paul/gcc-arm-none-eabi-5_2-2015q4/bin/../lib/gcc/arm-none-eabi/5.2.1/../../../../arm-none-eabi/lib/armv7-m/libc.a(lib_a-memchr-stub.o)
 .text          0x00000000        0x0 /home/paul/gcc-arm-none-eabi-5_2-2015q4/bin/../lib/gcc/arm-none-eabi/5.2.1/../../../../arm-none-eabi/lib/armv7-m/libc.a(lib_a-memcmp.o)
 .data          0x00000000        0x0 /home/paul/gcc-arm-none-eabi-5_2-2015q4/bin/../lib/gcc/arm-none-eabi/5.2.1/../../../../arm-none-eabi/lib/armv7-m/libc.a(lib_a-memcmp.o)
 .bss           0x00000000        0x0 /home/paul/gcc-arm-none-eabi-5_2-2015q4/bin/../lib/gcc/arm-none-eabi/5.2.1/../../../../arm-none-eabi/lib/armv7-m/libc.a(lib_a-memcmp.o)
 .data          0x00000000        0x0 /home/paul/gcc-arm-none-eabi-5_2-2015q4/bin/../lib/gcc/arm-none-eabi/5.2.1/../../../../arm-none-eabi/lib/armv7-m/libc.a(lib_a-memcpy.o)
 .bss           0x00000000        0x0 /home/paul/gcc-arm-none-eabi-5_2-2015q4/bin/../lib/gcc/arm-none-eabi/5.2.1/../../../../arm-none-eabi/lib/armv7-m/libc.a(lib_a-memcpy.o)
 .text          0x00000000        0x0 /home/paul/gcc-arm-none-eabi-5_2-2015q4/bin/../lib/gcc/arm-none-eabi/5.2.1/../../../../arm-none-eabi/lib/armv7-m/libc.a(lib_a-memmove.o)
 .data          0x00000000        0x0 /home/paul/gcc-arm-none-eabi-5_2-2015q4/bin/../lib/gcc/arm-none-eabi/5.2.1/../../../../arm-none-eabi/lib/armv7-m/libc.a(lib_a-memmove.o)
 .bss           0x00000000        0x0 /home/paul/gcc-arm-none-eabi-5_2-2015q4/bin/../lib/gcc/arm-none-eabi/5.2.1/../../../../arm-none-eabi/lib/armv7-m/libc.a(lib_a-memmove.o)
 .text          0x00000000        0x0 /home/paul/gcc-arm-none-eabi-5_2-2015q4/bin/../lib/gcc/arm-none-eabi/5.2.1/../../../../arm-none-eabi/lib/armv7-m/libc.a(lib_a-memset.o)
 .data          0x00000000        0x0 /home/paul/gcc-arm-none-eabi-5_2-2015q4/bin/../lib/gcc/arm-none-eabi/5.2.1/../../../../arm-none-eabi/lib/armv7-m/libc.a(lib_a-memset.o)
 .bss           0x00000000        0x0 /home/paul/gcc-arm-none-eabi-5_2-2015q4/bin/../lib/gcc/arm-none-eabi/5.2.1/../../../../arm-none-eabi/lib/armv7-m/libc.a(lib_a-memset.o)
 .text          0x00000000        0x0 /home/paul/gcc-arm-none-eabi-5_2-2015q4/bin/../lib/gcc/arm-none-eabi/5.2.1/../../../../arm-none-eabi/lib/armv7-m/libc.a(lib_a-rand.o)
 .data          0x00000000        0x0 /home/paul/gcc-arm-none-eabi-5_2-2015q4/bin/../lib/gcc/arm-none-eabi/5.2.1/../../../../arm-none-eabi/lib/armv7-m/libc.a(lib_a-rand.o)
 .bss           0x00000000        0x0 /home/paul/gcc-arm-none-eabi-5_2-2015q4/bin/../lib/gcc/arm-none-eabi/5.2.1/../../../../arm-none-eabi/lib/armv7-m/libc.a(lib_a-rand.o)
 .text          0x00000000        0x0 /home/paul/gcc-arm-none-eabi-5_2-2015q4/bin/../lib/gcc/arm-none-eabi/5.2.1/../../../../arm-none-eabi/lib/armv7-m/libc.a(lib_a-strchr.o)
 .data          0x00000000        0x0 /home/paul/gcc-arm-none-eabi-5_2-2015q4/bin/../lib/gcc/arm-none-eabi/5.2.1/../../../../arm-none-eabi/lib/armv7-m/libc.a(lib_a-strchr.o)
 .bss           0x00000000        0x0 /home/paul/gcc-arm-none-eabi-5_2-2015q4/bin/../lib/gcc/arm-none-eabi/5.2.1/../../../../arm-none-eabi/lib/armv7-m/libc.a(lib_a-strchr.o)
 .text          0x00000000        0x0 /home/paul/gcc-arm-none-eabi-5_2-2015q4/bin/../lib/gcc/arm-none-eabi/5.2.1/../../../../arm-none-eabi/lib/armv7-m/libc.a(lib_a-strlen-stub.o)
 .data          0x00000000        0x0 /home/paul/gcc-arm-none-eabi-5_2-2015q4/bin/../lib/gcc/arm-none-eabi/5.2.1/../../../../arm-none-eabi/lib/armv7-m/libc.a(lib_a-strlen-stub.o)
 .bss           0x00000000        0x0 /home/paul/gcc-arm-none-eabi-5_2-2015q4/bin/../lib/gcc/arm-none-eabi/5.2.1/../../../../arm-none-eabi/lib/armv7-m/libc.a(lib_a-strlen-stub.o)
 .text          0x00000000        0x0 /home/paul/gcc-arm-none-eabi-5_2-2015q4/bin/../lib/gcc/arm-none-eabi/5.2.1/../../../../arm-none-eabi/lib/armv7-m/libc.a(lib_a-strncasecmp.o)
 .data          0x00000000        0x0 /home/paul/gcc-arm-none-eabi-5_2-2015q4/bin/../lib/gcc/arm-none-eabi/5.2.1/../../../../arm-none-eabi/lib/armv7-m/libc.a(lib_a-strncasecmp.o)
 .bss           0x00000000        0x0 /home/paul/gcc-arm-none-eabi-5_2-2015q4/bin/../lib/gcc/arm-none-eabi/5.2.1/../../../../arm-none-eabi/lib/armv7-m/libc.a(lib_a-strncasecmp.o)
 .text          0x00000000        0x0 /home/paul/gcc-arm-none-eabi-5_2-2015q4/bin/../lib/gcc/arm-none-eabi/5.2.1/../../../../arm-none-eabi/lib/armv7-m/libc.a(lib_a-strncmp.o)
 .data          0x00000000        0x0 /home/paul/gcc-arm-none-eabi-5_2-2015q4/bin/../lib/gcc/arm-none-eabi/5.2.1/../../../../arm-none-eabi/lib/armv7-m/libc.a(lib_a-strncmp.o)
 .bss           0x00000000        0x0 /home/paul/gcc-arm-none-eabi-5_2-2015q4/bin/../lib/gcc/arm-none-eabi/5.2.1/../../../../arm-none-eabi/lib/armv7-m/libc.a(lib_a-strncmp.o)
 .text          0x00000000        0x0 /home/paul/gcc-arm-none-eabi-5_2-2015q4/bin/../lib/gcc/arm-none-eabi/5.2.1/../../../../arm-none-eabi/lib/armv7-m/libc.a(lib_a-strncpy.o)
 .data          0x00000000        0x0 /home/paul/gcc-arm-none-eabi-5_2-2015q4/bin/../lib/gcc/arm-none-eabi/5.2.1/../../../../arm-none-eabi/lib/armv7-m/libc.a(lib_a-strncpy.o)
 .bss           0x00000000        0x0 /home/paul/gcc-arm-none-eabi-5_2-2015q4/bin/../lib/gcc/arm-none-eabi/5.2.1/../../../../arm-none-eabi/lib/armv7-m/libc.a(lib_a-strncpy.o)
 .text          0x00000000        0x0 /home/paul/gcc-arm-none-eabi-5_2-2015q4/bin/../lib/gcc/arm-none-eabi/5.2.1/../../../../arm-none-eabi/lib/armv7-m/libc.a(lib_a-strtol.o)
 .data          0x00000000        0x0 /home/paul/gcc-arm-none-eabi-5_2-2015q4/bin/../lib/gcc/arm-none-eabi/5.2.1/../../../../arm-none-eabi/lib/armv7-m/libc.a(lib_a-strtol.o)
 .bss           0x00000000        0x0 /home/paul/gcc-arm-none-eabi-5_2-2015q4/bin/../lib/gcc/arm-none-eabi/5.2.1/../../../../arm-none-eabi/lib/armv7-m/libc.a(lib_a-strtol.o)

Memory Configuration

Name             Origin             Length             Attributes
FLASH            0x00000000         0x0001ffa8         xr
FLASH_CCFG       0x0001ffa8         0x00000058         xr
SRAM             0x20000000         0x00005000         xrw
GPRAM            0x11000000         0x00002000         xrw
*default*        0x00000000         0xffffffff

Linker script and memory map

LOAD obj_srf06-cc26xx/fault-handlers.o
LOAD obj_srf06-cc26xx/ccfg.o
LOAD obj_srf06-cc26xx/startup_gcc.o
LOAD cc26xx-web-demo.co
LOAD obj_srf06-cc26xx/res-leds.o
LOAD obj_srf06-cc26xx/res-toggle-leds.o
LOAD obj_srf06-cc26xx/res-device.o
LOAD obj_srf06-cc26xx/res-sensors.o
LOAD obj_srf06-cc26xx/res-ble-advd.o
LOAD obj_srf06-cc26xx/res-net.o
LOAD obj_srf06-cc26xx/cetic-6lbr-client.o
LOAD obj_srf06-cc26xx/coap-server.o
LOAD obj_srf06-cc26xx/net-uart.o
LOAD obj_srf06-cc26xx/mqtt-client.o
LOAD obj_srf06-cc26xx/httpd-simple.o
LOAD contiki-srf06-cc26xx.a
LOAD /home/paul/gcc-arm-none-eabi-5_2-2015q4/bin/../lib/gcc/arm-none-eabi/5.2.1/../../../../arm-none-eabi/lib/armv7-m/libm.a
START GROUP
LOAD /home/paul/gcc-arm-none-eabi-5_2-2015q4/bin/../lib/gcc/arm-none-eabi/5.2.1/armv7-m/libgcc.a
LOAD /home/paul/gcc-arm-none-eabi-5_2-2015q4/bin/../lib/gcc/arm-none-eabi/5.2.1/../../../../arm-none-eabi/lib/armv7-m/libc.a
END GROUP
                0x20005000                _estack = (ORIGIN (SRAM) + LENGTH (SRAM))
                0x00000000                _Min_Heap_Size = 0x0
                0x00000100                _Min_Stack_Size = 0x100

.text           0x00000000    0x1b519
                0x00000000                _text = .
 *(SORT(.vectors))
 .vectors       0x00000000       0xc8 obj_srf06-cc26xx/startup_gcc.o
                0x00000000                gVectors
 *(SORT(.text*))
 .text.value    0x000000c8       0xb0 contiki-srf06-cc26xx.a(opt-3001-sensor)
 .text.value    0x00000178       0x9c contiki-srf06-cc26xx.a(hdc-1000-sensor)
 *fill*         0x00000214        0x4 00000000
 .text.value    0x00000218      0x19c contiki-srf06-cc26xx.a(mpu-9250-sensor)
 *fill*         0x000003b4        0x4 00000000
 .text.__ieee754_pow
                0x000003b8      0xac4 /home/paul/gcc-arm-none-eabi-5_2-2015q4/bin/../lib/gcc/arm-none-eabi/5.2.1/../../../../arm-none-eabi/lib/armv7-m/libm.a(lib_a-e_pow.o)
                0x000003b8                __ieee754_pow
 *fill*         0x00000e7c        0x4 00000000
 .text.scalbn   0x00000e80       0xe4 /home/paul/gcc-arm-none-eabi-5_2-2015q4/bin/../lib/gcc/arm-none-eabi/5.2.1/../../../../arm-none-eabi/lib/armv7-m/libm.a(lib_a-s_scalbn.o)
                0x00000e80                scalbn
 .text.FaultISR
                0x00000f64       0x18 obj_srf06-cc26xx/fault-handlers.o
                0x00000f64                FaultISR
 .text.NmiSRHandler
                0x00000f7c        0x4 obj_srf06-cc26xx/startup_gcc.o
                0x00000f7c                NmiSR
 .text.IntDefaultHandler
                0x00000f80        0x4 obj_srf06-cc26xx/startup_gcc.o
                0x00000f80                TRNGIntHandler
                0x00000f80                SSI0IntHandler
                0x00000f80                SWEvent0IntHandler
                0x00000f80                uDMAIntHandler
                0x00000f80                WatchdogIntHandler
                0x00000f80                RFCHardwareIntHandler
                0x00000f80                Timer1BIntHandler
                0x00000f80                I2SIntHandler
                0x00000f80                Timer2BIntHandler
                0x00000f80                Timer2AIntHandler
                0x00000f80                Timer1AIntHandler
                0x00000f80                AONIntHandler
                0x00000f80                AUXSWEvent0IntHandler
                0x00000f80                AUXADCIntHandler
                0x00000f80                PendSVIntHandler
                0x00000f80                AUXSWEvent1IntHandler
                0x00000f80                SVCallIntHandler
                0x00000f80                MPUFaultIntHandler
                0x00000f80                SysTickIntHandler
                0x00000f80                BusFaultIntHandler
                0x00000f80                AONProgIntHandler
                0x00000f80                AUXCompAIntHandler
                0x00000f80                SSI1IntHandler
                0x00000f80                FlashIntHandler
                0x00000f80                uDMAErrIntHandler
                0x00000f80                UsageFaultIntHandler
                0x00000f80                RFCCmdAckIntHandler
                0x00000f80                CryptoIntHandler
                0x00000f80                Timer0AIntHandler
                0x00000f80                I2CIntHandler
                0x00000f80                DebugMonIntHandler
                0x00000f80                Timer0BIntHandler
                0x00000f80                AUXCombEventIntHandler
                0x00000f80                Timer3AIntHandler
                0x00000f80                DynProgIntHandler
                0x00000f80                Timer3BIntHandler
 .text.ResetISR
                0x00000f84       0x5c obj_srf06-cc26xx/startup_gcc.o
                0x00000f84                ResetISR
 .text.publish_led_off
                0x00000fe0        0x8 cc26xx-web-demo.co
 .text.load_config
                0x00000fe8       0xa8 cc26xx-web-demo.co
 .text.get_batmon_reading
                0x00001090       0xb0 cc26xx-web-demo.co
 .text.print_mpu_reading
                0x00001140       0x3c cc26xx-web-demo.co
 .text.sensor_readings_handler
                0x0000117c       0x7c cc26xx-web-demo.co
 .text.init_bmp_reading
                0x000011f8       0x3c cc26xx-web-demo.co
 .text.init_light_reading
                0x00001234       0x30 cc26xx-web-demo.co
 .text.init_hdc_reading
                0x00001264       0x3c cc26xx-web-demo.co
 .text.init_tmp_reading
                0x000012a0       0x3c cc26xx-web-demo.co
 .text.init_mpu_reading
                0x000012dc       0x78 cc26xx-web-demo.co
 .text.init_sensor_readings
                0x00001354       0x2c cc26xx-web-demo.co
 .text.echo_reply_handler
                0x00001380       0x24 cc26xx-web-demo.co
 .text.save_config
                0x000013a4       0x94 cc26xx-web-demo.co
 .text.ping_interval_post_handler
                0x00001438       0x44 cc26xx-web-demo.co
 .text.cc26xx_web_demo_ipaddr_sprintf
                0x0000147c       0xa4 cc26xx-web-demo.co
                0x0000147c                cc26xx_web_demo_ipaddr_sprintf
 .text.cc26xx_web_demo_sensor_lookup
                0x00001520       0x30 cc26xx-web-demo.co
                0x00001520                cc26xx_web_demo_sensor_lookup
 .text.cc26xx_web_demo_sensor_first
                0x00001550        0xc cc26xx-web-demo.co
                0x00001550                cc26xx_web_demo_sensor_first
 .text.cc26xx_web_demo_restore_defaults
                0x0000155c       0x50 cc26xx-web-demo.co
                0x0000155c                cc26xx_web_demo_restore_defaults
 .text.process_thread_cc26xx_web_demo_process
                0x000015ac      0x8e4 cc26xx-web-demo.co
 .text.defaults_post_handler
                0x00001e90       0x24 cc26xx-web-demo.co
 .text.res_post_put_handler
                0x00001eb4       0xa8 obj_srf06-cc26xx/res-leds.o
 .text.res_post_handler_red
                0x00001f5c        0x8 obj_srf06-cc26xx/res-toggle-leds.o
 .text.res_post_handler_green
                0x00001f64        0x8 obj_srf06-cc26xx/res-toggle-leds.o
 .text.res_get_handler_sw
                0x00001f6c       0xd0 obj_srf06-cc26xx/res-device.o
 .text.res_get_handler_uptime
                0x0000203c       0xbc obj_srf06-cc26xx/res-device.o
 .text.res_get_handler_hw
                0x000020f8      0x128 obj_srf06-cc26xx/res-device.o
 .text.res_post_handler_cfg_reset
                0x00002220        0x4 obj_srf06-cc26xx/res-device.o
 .text.res_get_handler_all.isra.0
                0x00002224       0xf4 obj_srf06-cc26xx/res-sensors.o
 .text.res_get_handler_batmon_temp
                0x00002318        0xc obj_srf06-cc26xx/res-sensors.o
 .text.res_get_handler_batmon_volt
                0x00002324        0xc obj_srf06-cc26xx/res-sensors.o
 .text.res_get_handler_mpu_acc_x
                0x00002330        0xc obj_srf06-cc26xx/res-sensors.o
 .text.res_get_handler_mpu_acc_y
                0x0000233c        0xc obj_srf06-cc26xx/res-sensors.o
 .text.res_get_handler_mpu_acc_z
                0x00002348        0xc obj_srf06-cc26xx/res-sensors.o
 .text.res_get_handler_mpu_gyro_x
                0x00002354        0xc obj_srf06-cc26xx/res-sensors.o
 .text.res_get_handler_mpu_gyro_y
                0x00002360        0xc obj_srf06-cc26xx/res-sensors.o
 .text.res_get_handler_mpu_gyro_z
                0x0000236c        0xc obj_srf06-cc26xx/res-sensors.o
 .text.res_get_handler_obj_temp
                0x00002378        0xc obj_srf06-cc26xx/res-sensors.o
 .text.res_get_handler_amb_temp
                0x00002384        0xc obj_srf06-cc26xx/res-sensors.o
 .text.res_get_handler_bmp_temp
                0x00002390        0xc obj_srf06-cc26xx/res-sensors.o
 .text.res_get_handler_bmp_press
                0x0000239c        0xc obj_srf06-cc26xx/res-sensors.o
 .text.res_get_handler_hdc_temp
                0x000023a8        0xc obj_srf06-cc26xx/res-sensors.o
 .text.res_get_handler_hdc_humidity
                0x000023b4        0xc obj_srf06-cc26xx/res-sensors.o
 .text.res_get_handler_opt
                0x000023c0        0xc obj_srf06-cc26xx/res-sensors.o
 .text.res_ble_post_put_handler
                0x000023cc       0xf8 obj_srf06-cc26xx/res-ble-advd.o
 .text.res_get_handler_parent_rssi
                0x000024c4       0xb8 obj_srf06-cc26xx/res-net.o
 .text.res_get_handler_pref_parent
                0x0000257c       0xc8 obj_srf06-cc26xx/res-net.o
 .text.process_thread_cetic_6lbr_client_process
                0x00002644      0x1ec obj_srf06-cc26xx/cetic-6lbr-client.o
 .text.process_thread_coap_server_process
                0x00002830      0x1c4 obj_srf06-cc26xx/coap-server.o
 .text.set_new_ip_address
                0x000029f4       0x24 obj_srf06-cc26xx/net-uart.o
 .text.set_config_defaults
                0x00002a18       0x50 obj_srf06-cc26xx/net-uart.o
 .text.process_thread_net_uart_process
                0x00002a68      0x184 obj_srf06-cc26xx/net-uart.o
 .text.remote_ipv6_post_handler
                0x00002bec       0x50 obj_srf06-cc26xx/net-uart.o
 .text.remote_port_post_handler
                0x00002c3c       0x44 obj_srf06-cc26xx/net-uart.o
 .text.on_off_post_handler
                0x00002c80       0x58 obj_srf06-cc26xx/net-uart.o
 .text.publish_led_off
                0x00002cd8        0x8 obj_srf06-cc26xx/mqtt-client.o
 .text.init_config
                0x00002ce0       0xa8 obj_srf06-cc26xx/mqtt-client.o
 .text.update_config
                0x00002d88       0xe4 obj_srf06-cc26xx/mqtt-client.o
 .text.process_thread_mqtt_client_process
                0x00002e6c      0x4b0 obj_srf06-cc26xx/mqtt-client.o
 .text.mqtt_event
                0x0000331c       0xf4 obj_srf06-cc26xx/mqtt-client.o
 .text.new_net_config.part.2
                0x00003410       0x24 obj_srf06-cc26xx/mqtt-client.o
 .text.org_id_post_handler
                0x00003434       0x60 obj_srf06-cc26xx/mqtt-client.o
 .text.type_id_post_handler
                0x00003494       0x64 obj_srf06-cc26xx/mqtt-client.o
 .text.event_type_id_post_handler
                0x000034f8       0x64 obj_srf06-cc26xx/mqtt-client.o
 .text.cmd_type_post_handler
                0x0000355c       0x64 obj_srf06-cc26xx/mqtt-client.o
 .text.auth_token_post_handler
                0x000035c0       0x64 obj_srf06-cc26xx/mqtt-client.o
 .text.ip_addr_post_handler
                0x00003624       0x64 obj_srf06-cc26xx/mqtt-client.o
 .text.reconnect_post_handler
                0x00003688       0x34 obj_srf06-cc26xx/mqtt-client.o
 .text.port_post_handler
                0x000036bc       0x58 obj_srf06-cc26xx/mqtt-client.o
 .text.interval_post_handler
                0x00003714       0x48 obj_srf06-cc26xx/mqtt-client.o
 .text.enqueue_chunk
                0x0000375c      0x110 obj_srf06-cc26xx/httpd-simple.o
 .text.generate_top_matter
                0x0000386c      0x270 obj_srf06-cc26xx/httpd-simple.o
 .text.generate_mqtt_config
                0x00003adc      0x800 obj_srf06-cc26xx/httpd-simple.o
 .text.generate_net_uart_config
                0x000042dc      0x3e0 obj_srf06-cc26xx/httpd-simple.o
 .text.send_headers
                0x000046bc      0x124 obj_srf06-cc26xx/httpd-simple.o
 .text.generate_config
                0x000047e0      0x59c obj_srf06-cc26xx/httpd-simple.o
 .text.generate_index
                0x00004d7c      0x540 obj_srf06-cc26xx/httpd-simple.o
 .text.send_string
                0x000052bc       0x44 obj_srf06-cc26xx/httpd-simple.o
 .text.handle_output
                0x00005300      0x2e0 obj_srf06-cc26xx/httpd-simple.o
 .text.handle_input
                0x000055e0      0x5bc obj_srf06-cc26xx/httpd-simple.o
 .text.process_thread_httpd_simple_process
                0x00005b9c      0x1b0 obj_srf06-cc26xx/httpd-simple.o
 .text.httpd_simple_register_post_handler
                0x00005d4c        0xc obj_srf06-cc26xx/httpd-simple.o
                0x00005d4c                httpd_simple_register_post_handler
 .text.coap_set_service_callback
                0x00005d58        0xc contiki-srf06-cc26xx.a(er-coap-engine.)
                0x00005d58                coap_set_service_callback
 .text.coap_get_rest_method
                0x00005d64       0x10 contiki-srf06-cc26xx.a(er-coap-engine.)
                0x00005d64                coap_get_rest_method
 .text.process_thread_coap_engine
                0x00005d74      0x3c8 contiki-srf06-cc26xx.a(er-coap-engine.)
 .text.coap_init_engine
                0x0000613c        0xc contiki-srf06-cc26xx.a(er-coap-engine.)
                0x0000613c                coap_init_engine
 .text.coap_register_as_transaction_handler
                0x00006148       0x14 contiki-srf06-cc26xx.a(er-coap-transac)
                0x00006148                coap_register_as_transaction_handler
 .text.coap_new_transaction
                0x0000615c       0x48 contiki-srf06-cc26xx.a(er-coap-transac)
                0x0000615c                coap_new_transaction
 .text.coap_clear_transaction
                0x000061a4       0x2c contiki-srf06-cc26xx.a(er-coap-transac)
                0x000061a4                coap_clear_transaction
 .text.coap_send_transaction
                0x000061d0       0xa0 contiki-srf06-cc26xx.a(er-coap-transac)
                0x000061d0                coap_send_transaction
 .text.coap_get_transaction_by_mid
                0x00006270       0x28 contiki-srf06-cc26xx.a(er-coap-transac)
                0x00006270                coap_get_transaction_by_mid
 .text.coap_check_transactions
                0x00006298       0x38 contiki-srf06-cc26xx.a(er-coap-transac)
                0x00006298                coap_check_transactions
 .text.coap_remove_observer
                0x000062d0       0x20 contiki-srf06-cc26xx.a(er-coap-observe)
                0x000062d0                coap_remove_observer
 .text.coap_remove_observer_by_client
                0x000062f0       0x44 contiki-srf06-cc26xx.a(er-coap-observe)
                0x000062f0                coap_remove_observer_by_client
 .text.coap_remove_observer_by_token
                0x00006334       0x6c contiki-srf06-cc26xx.a(er-coap-observe)
                0x00006334                coap_remove_observer_by_token
 .text.coap_remove_observer_by_uri
                0x000063a0       0x70 contiki-srf06-cc26xx.a(er-coap-observe)
                0x000063a0                coap_remove_observer_by_uri
 .text.coap_remove_observer_by_mid
                0x00006410       0x58 contiki-srf06-cc26xx.a(er-coap-observe)
                0x00006410                coap_remove_observer_by_mid
 .text.coap_notify_observers_sub
                0x00006468      0x138 contiki-srf06-cc26xx.a(er-coap-observe)
                0x00006468                coap_notify_observers_sub
 .text.coap_notify_observers
                0x000065a0        0x8 contiki-srf06-cc26xx.a(er-coap-observe)
                0x000065a0                coap_notify_observers
 .text.coap_observe_handler
                0x000065a8      0x100 contiki-srf06-cc26xx.a(er-coap-observe)
                0x000065a8                coap_observe_handler
 .text.well_known_core_get_handler
                0x000066a8      0x19c contiki-srf06-cc26xx.a(er-coap-res-wel)
                0x000066a8                well_known_core_get_handler
 .text.process_thread_rest_engine_process
                0x00006844       0xa0 contiki-srf06-cc26xx.a(rest-engine.o)
 .text.rest_invoke_restful_service
                0x000068e4       0xf4 contiki-srf06-cc26xx.a(rest-engine.o)
                0x000068e4                rest_invoke_restful_service
 .text.rest_init_engine
                0x000069d8       0x40 contiki-srf06-cc26xx.a(rest-engine.o)
                0x000069d8                rest_init_engine
 .text.rest_activate_resource
                0x00006a18       0x38 contiki-srf06-cc26xx.a(rest-engine.o)
                0x00006a18                rest_activate_resource
 .text.rest_get_resources
                0x00006a50        0x8 contiki-srf06-cc26xx.a(rest-engine.o)
                0x00006a50                rest_get_resources
 .text.call_event
                0x00006a58       0x1c contiki-srf06-cc26xx.a(mqtt.o)
 .text.connect_tcp
                0x00006a74       0x7c contiki-srf06-cc26xx.a(mqtt.o)
 .text.abort_connection
                0x00006af0       0x40 contiki-srf06-cc26xx.a(mqtt.o)
 .text.write_byte
                0x00006b30       0x40 contiki-srf06-cc26xx.a(mqtt.o)
 .text.write_bytes
                0x00006b70       0x6c contiki-srf06-cc26xx.a(mqtt.o)
 .text.handle_publish
                0x00006bdc       0x38 contiki-srf06-cc26xx.a(mqtt.o)
 .text.tcp_input
                0x00006c14      0x34c contiki-srf06-cc26xx.a(mqtt.o)
 .text.keep_alive_callback
                0x00006f60       0x40 contiki-srf06-cc26xx.a(mqtt.o)
 .text.tcp_event
                0x00006fa0       0x98 contiki-srf06-cc26xx.a(mqtt.o)
 .text.mqtt_init.part.4
                0x00007038       0xac contiki-srf06-cc26xx.a(mqtt.o)
 .text.process_thread_mqtt_process
                0x000070e4     0x1370 contiki-srf06-cc26xx.a(mqtt.o)
 .text.mqtt_register
                0x00008454       0x88 contiki-srf06-cc26xx.a(mqtt.o)
                0x00008454                mqtt_register
 .text.mqtt_connect
                0x000084dc       0x5c contiki-srf06-cc26xx.a(mqtt.o)
                0x000084dc                mqtt_connect
 .text.mqtt_disconnect
                0x00008538       0x24 contiki-srf06-cc26xx.a(mqtt.o)
                0x00008538                mqtt_disconnect
 .text.mqtt_subscribe
                0x0000855c       0x60 contiki-srf06-cc26xx.a(mqtt.o)
                0x0000855c                mqtt_subscribe
 .text.mqtt_publish
                0x000085bc       0x80 contiki-srf06-cc26xx.a(mqtt.o)
                0x000085bc                mqtt_publish
 .text.mqtt_set_username_password
                0x0000863c       0x64 contiki-srf06-cc26xx.a(mqtt.o)
                0x0000863c                mqtt_set_username_password
 .text.fade     0x000086a0       0x64 contiki-srf06-cc26xx.a(contiki-main.o)
 .text.startup.main
                0x00008704      0x1e4 contiki-srf06-cc26xx.a(contiki-main.o)
                0x00008704                main
 .text.process_thread_sensors_process
                0x000088e8       0xf8 contiki-srf06-cc26xx.a(sensors.o)
 .text.sensors_changed
                0x000089e0       0x4c contiki-srf06-cc26xx.a(sensors.o)
                0x000089e0                sensors_changed
 .text.leds_init
                0x00008a2c       0x14 contiki-srf06-cc26xx.a(leds.o)
                0x00008a2c                leds_init
 .text.leds_on  0x00008a40       0x14 contiki-srf06-cc26xx.a(leds.o)
                0x00008a40                leds_on
 .text.leds_off
                0x00008a54       0x14 contiki-srf06-cc26xx.a(leds.o)
                0x00008a54                leds_off
 .text.leds_toggle
                0x00008a68       0x14 contiki-srf06-cc26xx.a(leds.o)
                0x00008a68                leds_toggle
 .text.leds_arch_init
                0x00008a7c       0x38 contiki-srf06-cc26xx.a(leds-arch.o)
                0x00008a7c                leds_arch_init
 .text.leds_arch_set
                0x00008ab4       0x34 contiki-srf06-cc26xx.a(leds-arch.o)
                0x00008ab4                leds_arch_set
 .text.status   0x00008ae8       0x14 contiki-srf06-cc26xx.a(bmp-280-sensor.)
 .text.notify_ready
                0x00008afc       0x14 contiki-srf06-cc26xx.a(bmp-280-sensor.)
 .text.enable_sensor
                0x00008b10       0x2c contiki-srf06-cc26xx.a(bmp-280-sensor.)
 .text.configure
                0x00008b3c       0x94 contiki-srf06-cc26xx.a(bmp-280-sensor.)
 .text.value    0x00008bd0      0x168 contiki-srf06-cc26xx.a(bmp-280-sensor.)
 .text.status   0x00008d38       0x14 contiki-srf06-cc26xx.a(tmp-007-sensor.)
 .text.notify_ready
                0x00008d4c       0x14 contiki-srf06-cc26xx.a(tmp-007-sensor.)
 .text.enable_sensor
                0x00008d60       0x2c contiki-srf06-cc26xx.a(tmp-007-sensor.)
 .text.configure
                0x00008d8c       0x94 contiki-srf06-cc26xx.a(tmp-007-sensor.)
 .text.value    0x00008e20       0xf0 contiki-srf06-cc26xx.a(tmp-007-sensor.)
 .text.status   0x00008f10        0xc contiki-srf06-cc26xx.a(opt-3001-sensor)
 .text.enable_sensor
                0x00008f1c       0x44 contiki-srf06-cc26xx.a(opt-3001-sensor)
 .text.notify_ready
                0x00008f60       0x54 contiki-srf06-cc26xx.a(opt-3001-sensor)
 .text.configure
                0x00008fb4       0x4c contiki-srf06-cc26xx.a(opt-3001-sensor)
 .text.status   0x00009000       0x14 contiki-srf06-cc26xx.a(hdc-1000-sensor)
 .text.notify_ready
                0x00009014       0x68 contiki-srf06-cc26xx.a(hdc-1000-sensor)
 .text.configure
                0x0000907c       0xb8 contiki-srf06-cc26xx.a(hdc-1000-sensor)
 .text.acc_convert
                0x00009134       0x70 contiki-srf06-cc26xx.a(mpu-9250-sensor)
 .text.status   0x000091a4       0x14 contiki-srf06-cc26xx.a(mpu-9250-sensor)
 .text.notify_ready
                0x000091b8       0x14 contiki-srf06-cc26xx.a(mpu-9250-sensor)
 .text.sensor_sleep
                0x000091cc       0x38 contiki-srf06-cc26xx.a(mpu-9250-sensor)
 .text.configure
                0x00009204       0xdc contiki-srf06-cc26xx.a(mpu-9250-sensor)
 .text.int_status
                0x000092e0       0x28 contiki-srf06-cc26xx.a(mpu-9250-sensor)
 .text.initialise
                0x00009308      0x100 contiki-srf06-cc26xx.a(mpu-9250-sensor)
 .text.status.part.0
                0x00009408       0x14 contiki-srf06-cc26xx.a(button-sensor.o)
 .text.value_left
                0x0000941c       0x24 contiki-srf06-cc26xx.a(button-sensor.o)
 .text.value_right
                0x00009440       0x18 contiki-srf06-cc26xx.a(button-sensor.o)
 .text.status_left
                0x00009458       0x10 contiki-srf06-cc26xx.a(button-sensor.o)
 .text.status_right
                0x00009468       0x10 contiki-srf06-cc26xx.a(button-sensor.o)
 .text.config_buttons
                0x00009478       0x8c contiki-srf06-cc26xx.a(button-sensor.o)
 .text.config_left
                0x00009504        0xc contiki-srf06-cc26xx.a(button-sensor.o)
 .text.config_right
                0x00009510        0xc contiki-srf06-cc26xx.a(button-sensor.o)
 .text.button_press_handler
                0x0000951c       0x64 contiki-srf06-cc26xx.a(button-sensor.o)
 .text.value    0x00009580       0x10 contiki-srf06-cc26xx.a(reed-relay.o)
 .text.status   0x00009590       0x20 contiki-srf06-cc26xx.a(reed-relay.o)
 .text.configure
                0x000095b0       0x6c contiki-srf06-cc26xx.a(reed-relay.o)
 .text.reed_interrupt_handler
                0x0000961c       0x28 contiki-srf06-cc26xx.a(reed-relay.o)
 .text.verify_part
                0x00009644       0x70 contiki-srf06-cc26xx.a(ext-flash.o)
 .text.wait_ready
                0x000096b4       0x64 contiki-srf06-cc26xx.a(ext-flash.o)
 .text.power_down
                0x00009718       0x50 contiki-srf06-cc26xx.a(ext-flash.o)
 .text.ext_flash_open
                0x00009768       0x60 contiki-srf06-cc26xx.a(ext-flash.o)
                0x00009768                ext_flash_open
 .text.ext_flash_close
                0x000097c8       0x10 contiki-srf06-cc26xx.a(ext-flash.o)
                0x000097c8                ext_flash_close
 .text.ext_flash_read
                0x000097d8       0x58 contiki-srf06-cc26xx.a(ext-flash.o)
                0x000097d8                ext_flash_read
 .text.ext_flash_write
                0x00009830       0xb4 contiki-srf06-cc26xx.a(ext-flash.o)
                0x00009830                ext_flash_write
 .text.ext_flash_erase
                0x000098e4       0x9c contiki-srf06-cc26xx.a(ext-flash.o)
                0x000098e4                ext_flash_erase
 .text.ext_flash_init
                0x00009980       0x14 contiki-srf06-cc26xx.a(ext-flash.o)
                0x00009980                ext_flash_init
 .text.buzzer_init
                0x00009994        0xc contiki-srf06-cc26xx.a(buzzer.o)
                0x00009994                buzzer_init
 .text.buzzer_start
                0x000099a0       0xa4 contiki-srf06-cc26xx.a(buzzer.o)
                0x000099a0                buzzer_start
 .text.buzzer_stop
                0x00009a44       0x74 contiki-srf06-cc26xx.a(buzzer.o)
                0x00009a44                buzzer_stop
 .text.power_domains_on
                0x00009ab8       0x20 contiki-srf06-cc26xx.a(board.o)
 .text.lpm_wakeup_handler
                0x00009ad8        0x4 contiki-srf06-cc26xx.a(board.o)
 .text.shutdown_handler
                0x00009adc       0x68 contiki-srf06-cc26xx.a(board.o)
 .text.board_init
                0x00009b44      0x118 contiki-srf06-cc26xx.a(board.o)
                0x00009b44                board_init
 .text.accessible
                0x00009c5c       0x24 contiki-srf06-cc26xx.a(board-spi.o)
 .text.board_spi_write
                0x00009c80       0x3c contiki-srf06-cc26xx.a(board-spi.o)
                0x00009c80                board_spi_write
 .text.board_spi_read
                0x00009cbc       0x48 contiki-srf06-cc26xx.a(board-spi.o)
                0x00009cbc                board_spi_read
 .text.board_spi_flush
                0x00009d04       0x24 contiki-srf06-cc26xx.a(board-spi.o)
                0x00009d04                board_spi_flush
 .text.board_spi_open
                0x00009d28       0xbc contiki-srf06-cc26xx.a(board-spi.o)
                0x00009d28                board_spi_open
 .text.board_spi_close
                0x00009de4       0x70 contiki-srf06-cc26xx.a(board-spi.o)
                0x00009de4                board_spi_close
 .text.i2c_status
                0x00009e54       0x34 contiki-srf06-cc26xx.a(board-i2c.o)
 .text.accessible
                0x00009e88       0x24 contiki-srf06-cc26xx.a(board-i2c.o)
 .text.board_i2c_wakeup
                0x00009eac       0x5c contiki-srf06-cc26xx.a(board-i2c.o)
                0x00009eac                board_i2c_wakeup
 .text.board_i2c_shutdown
                0x00009f08       0xa4 contiki-srf06-cc26xx.a(board-i2c.o)
                0x00009f08                board_i2c_shutdown
 .text.board_i2c_write
                0x00009fac       0xc0 contiki-srf06-cc26xx.a(board-i2c.o)
                0x00009fac                board_i2c_write
 .text.board_i2c_write_single
                0x0000a06c       0x44 contiki-srf06-cc26xx.a(board-i2c.o)
                0x0000a06c                board_i2c_write_single
 .text.board_i2c_read
                0x0000a0b0       0xb4 contiki-srf06-cc26xx.a(board-i2c.o)
                0x0000a0b0                board_i2c_read
 .text.board_i2c_write_read
                0x0000a164      0x138 contiki-srf06-cc26xx.a(board-i2c.o)
                0x0000a164                board_i2c_write_read
 .text.board_i2c_select
                0x0000a29c       0xdc contiki-srf06-cc26xx.a(board-i2c.o)
                0x0000a29c                board_i2c_select
 .text.power_domain_on
                0x0000a378       0x20 contiki-srf06-cc26xx.a(clock.o)
 .text.clock_init
                0x0000a398       0x90 contiki-srf06-cc26xx.a(clock.o)
                0x0000a398                clock_init
 .text.clock_time
                0x0000a428       0x34 contiki-srf06-cc26xx.a(clock.o)
                0x0000a428                clock_time
 .text.clock_update
                0x0000a45c       0x3c contiki-srf06-cc26xx.a(clock.o)
                0x0000a45c                clock_update
 .text.clock_seconds
                0x0000a498       0x18 contiki-srf06-cc26xx.a(clock.o)
                0x0000a498                clock_seconds
 .text.rtimer_arch_init
                0x0000a4b0        0x4 contiki-srf06-cc26xx.a(rtimer-arch.o)
                0x0000a4b0                rtimer_arch_init
 .text.rtimer_arch_schedule
                0x0000a4b4        0x8 contiki-srf06-cc26xx.a(rtimer-arch.o)
                0x0000a4b4                rtimer_arch_schedule
 .text.rtimer_arch_now
                0x0000a4bc        0x4 contiki-srf06-cc26xx.a(rtimer-arch.o)
                0x0000a4bc                rtimer_arch_now
 .text.soc_rtc_init
                0x0000a4c0       0x94 contiki-srf06-cc26xx.a(soc-rtc.o)
                0x0000a4c0                soc_rtc_init
 .text.soc_rtc_get_next_trigger
                0x0000a554       0x28 contiki-srf06-cc26xx.a(soc-rtc.o)
                0x0000a554                soc_rtc_get_next_trigger
 .text.soc_rtc_schedule_one_shot
                0x0000a57c       0x48 contiki-srf06-cc26xx.a(soc-rtc.o)
                0x0000a57c                soc_rtc_schedule_one_shot
 .text.soc_rtc_last_isr_time
                0x0000a5c4        0xc contiki-srf06-cc26xx.a(soc-rtc.o)
                0x0000a5c4                soc_rtc_last_isr_time
 .text.AONRTCIntHandler
                0x0000a5d0       0x68 contiki-srf06-cc26xx.a(soc-rtc.o)
                0x0000a5d0                AONRTCIntHandler
 .text.watchdog_init
                0x0000a638       0x1c contiki-srf06-cc26xx.a(contiki-watchdo)
                0x0000a638                watchdog_init
 .text.watchdog_start
                0x0000a654       0x68 contiki-srf06-cc26xx.a(contiki-watchdo)
                0x0000a654                watchdog_start
 .text.watchdog_periodic
                0x0000a6bc       0x1c contiki-srf06-cc26xx.a(contiki-watchdo)
                0x0000a6bc                watchdog_periodic
 .text.putchar  0x0000a6d8       0x10 contiki-srf06-cc26xx.a(putchar.o)
                0x0000a6d8                putchar
 .text.puts     0x0000a6e8       0x30 contiki-srf06-cc26xx.a(putchar.o)
                0x0000a6e8                puts
 .text.dbg_send_bytes
                0x0000a718       0x40 contiki-srf06-cc26xx.a(putchar.o)
                0x0000a718                dbg_send_bytes
 .text.ieee_addr_cpy_to
                0x0000a758       0x40 contiki-srf06-cc26xx.a(ieee-addr.o)
                0x0000a758                ieee_addr_cpy_to
 .text.configure
                0x0000a798       0x34 contiki-srf06-cc26xx.a(batmon-sensor.o)
 .text.status   0x0000a7cc       0x14 contiki-srf06-cc26xx.a(batmon-sensor.o)
 .text.value    0x0000a7e0       0x24 contiki-srf06-cc26xx.a(batmon-sensor.o)
 .text.power_and_clock
                0x0000a804       0x40 contiki-srf06-cc26xx.a(cc26xx-uart.o)
 .text.enable   0x0000a844       0xf4 contiki-srf06-cc26xx.a(cc26xx-uart.o)
 .text.accessible
                0x0000a938       0x24 contiki-srf06-cc26xx.a(cc26xx-uart.o)
 .text.lpm_drop_handler
                0x0000a95c       0xcc contiki-srf06-cc26xx.a(cc26xx-uart.o)
 .text.cc26xx_uart_init
                0x0000aa28       0x28 contiki-srf06-cc26xx.a(cc26xx-uart.o)
                0x0000aa28                cc26xx_uart_init
 .text.cc26xx_uart_write_byte
                0x0000aa50       0x28 contiki-srf06-cc26xx.a(cc26xx-uart.o)
                0x0000aa50                cc26xx_uart_write_byte
 .text.cc26xx_uart_set_input
                0x0000aa78       0x64 contiki-srf06-cc26xx.a(cc26xx-uart.o)
                0x0000aa78                cc26xx_uart_set_input
 .text.cc26xx_uart_busy
                0x0000aadc       0x18 contiki-srf06-cc26xx.a(cc26xx-uart.o)
                0x0000aadc                cc26xx_uart_busy
 .text.UART0IntHandler
                0x0000aaf4       0x54 contiki-srf06-cc26xx.a(cc26xx-uart.o)
                0x0000aaf4                UART0IntHandler
 .text.lpm_shutdown
                0x0000ab48      0x1a8 contiki-srf06-cc26xx.a(lpm.o)
                0x0000ab48                lpm_shutdown
 .text.lpm_drop
                0x0000acf0      0x1fc contiki-srf06-cc26xx.a(lpm.o)
                0x0000acf0                lpm_drop
 .text.lpm_sleep
                0x0000aeec       0x14 contiki-srf06-cc26xx.a(lpm.o)
                0x0000aeec                lpm_sleep
 .text.lpm_register_module
                0x0000af00        0xc contiki-srf06-cc26xx.a(lpm.o)
                0x0000af00                lpm_register_module
 .text.lpm_unregister_module
                0x0000af0c        0xc contiki-srf06-cc26xx.a(lpm.o)
                0x0000af0c                lpm_unregister_module
 .text.lpm_init
                0x0000af18       0x20 contiki-srf06-cc26xx.a(lpm.o)
                0x0000af18                lpm_init
 .text.lpm_pin_set_default_state
                0x0000af38       0x30 contiki-srf06-cc26xx.a(lpm.o)
                0x0000af38                lpm_pin_set_default_state
 .text.gpio_interrupt_register_handler
                0x0000af68       0x2c contiki-srf06-cc26xx.a(gpio-interrupt.)
                0x0000af68                gpio_interrupt_register_handler
 .text.gpio_interrupt_init
                0x0000af94       0x24 contiki-srf06-cc26xx.a(gpio-interrupt.)
                0x0000af94                gpio_interrupt_init
 .text.GPIOIntHandler
                0x0000afb8       0x30 contiki-srf06-cc26xx.a(gpio-interrupt.)
                0x0000afb8                GPIOIntHandler
 .text.osc_interface_dis
                0x0000afe8       0x28 contiki-srf06-cc26xx.a(oscillators.o)
 .text.osc_interface_en
                0x0000b010       0x30 contiki-srf06-cc26xx.a(oscillators.o)
 .text.oscillators_select_lf_xosc
                0x0000b040       0x48 contiki-srf06-cc26xx.a(oscillators.o)
                0x0000b040                oscillators_select_lf_xosc
 .text.oscillators_select_lf_rcosc
                0x0000b088       0x30 contiki-srf06-cc26xx.a(oscillators.o)
                0x0000b088                oscillators_select_lf_rcosc
 .text.oscillators_request_hf_xosc
                0x0000b0b8       0x24 contiki-srf06-cc26xx.a(oscillators.o)
                0x0000b0b8                oscillators_request_hf_xosc
 .text.oscillators_switch_to_hf_xosc
                0x0000b0dc       0x28 contiki-srf06-cc26xx.a(oscillators.o)
                0x0000b0dc                oscillators_switch_to_hf_xosc
 .text.oscillators_switch_to_hf_rc
                0x0000b104       0x2c contiki-srf06-cc26xx.a(oscillators.o)
                0x0000b104                oscillators_switch_to_hf_rc
 .text.process_thread_rf_ble_beacon_process
                0x0000b130      0x22c contiki-srf06-cc26xx.a(rf-ble.o)
 .text.rf_ble_beacond_config
                0x0000b35c       0x44 contiki-srf06-cc26xx.a(rf-ble.o)
                0x0000b35c                rf_ble_beacond_config
 .text.rf_ble_beacond_start
                0x0000b3a0       0x38 contiki-srf06-cc26xx.a(rf-ble.o)
                0x0000b3a0                rf_ble_beacond_start
 .text.rf_ble_is_active
                0x0000b3d8        0xc contiki-srf06-cc26xx.a(rf-ble.o)
                0x0000b3d8                rf_ble_is_active
 .text.rf_ble_beacond_stop
                0x0000b3e4        0xc contiki-srf06-cc26xx.a(rf-ble.o)
                0x0000b3e4                rf_ble_beacond_stop
 .text.request  0x0000b3f0       0x20 contiki-srf06-cc26xx.a(ieee-mode.o)
 .text.rx_on    0x0000b410       0x60 contiki-srf06-cc26xx.a(ieee-mode.o)
 .text.rf_radio_setup
                0x0000b470       0x74 contiki-srf06-cc26xx.a(ieee-mode.o)
 .text.soft_on  0x0000b4e4       0x18 contiki-srf06-cc26xx.a(ieee-mode.o)
 .text.pending_packet
                0x0000b4fc       0x34 contiki-srf06-cc26xx.a(ieee-mode.o)
 .text.prepare  0x0000b530       0x1c contiki-srf06-cc26xx.a(ieee-mode.o)
 .text.read_frame
                0x0000b54c       0x58 contiki-srf06-cc26xx.a(ieee-mode.o)
 .text.soft_off
                0x0000b5a4       0x3c contiki-srf06-cc26xx.a(ieee-mode.o)
 .text.get_object
                0x0000b5e0       0x30 contiki-srf06-cc26xx.a(ieee-mode.o)
 .text.transmitting.part.1
                0x0000b610       0x40 contiki-srf06-cc26xx.a(ieee-mode.o)
 .text.rx_off   0x0000b650       0x64 contiki-srf06-cc26xx.a(ieee-mode.o)
 .text.get_cca_info
                0x0000b6b4       0x44 contiki-srf06-cc26xx.a(ieee-mode.o)
 .text.off.part.4
                0x0000b6f8       0x4c contiki-srf06-cc26xx.a(ieee-mode.o)
 .text.off      0x0000b744       0x14 contiki-srf06-cc26xx.a(ieee-mode.o)
 .text.receiving_packet
                0x0000b758       0x48 contiki-srf06-cc26xx.a(ieee-mode.o)
 .text.on       0x0000b7a0       0x98 contiki-srf06-cc26xx.a(ieee-mode.o)
 .text.set_value
                0x0000b838      0x168 contiki-srf06-cc26xx.a(ieee-mode.o)
 .text.get_value
                0x0000b9a0      0x144 contiki-srf06-cc26xx.a(ieee-mode.o)
 .text.transmit
                0x0000bae4       0xd8 contiki-srf06-cc26xx.a(ieee-mode.o)
 .text.send     0x0000bbbc       0x24 contiki-srf06-cc26xx.a(ieee-mode.o)
 .text.set_object
                0x0000bbe0       0x6c contiki-srf06-cc26xx.a(ieee-mode.o)
 .text.channel_clear
                0x0000bc4c       0x84 contiki-srf06-cc26xx.a(ieee-mode.o)
 .text.init     0x0000bcd0       0xd0 contiki-srf06-cc26xx.a(ieee-mode.o)
 .text.write_str
                0x0000bda0       0x14 contiki-srf06-cc26xx.a(dbg-printf.o)
 .text.printf   0x0000bdb4       0x24 contiki-srf06-cc26xx.a(dbg-printf.o)
                0x0000bdb4                printf
 .text.buffer_str
                0x0000bdd8       0x28 contiki-srf06-cc26xx.a(dbg-snprintf.o)
 .text.snprintf
                0x0000be00       0x38 contiki-srf06-cc26xx.a(dbg-snprintf.o)
                0x0000be00                snprintf
 .text.vsnprintf
                0x0000be38       0x2c contiki-srf06-cc26xx.a(dbg-snprintf.o)
                0x0000be38                vsnprintf
 .text.buffer_str
                0x0000be64       0x18 contiki-srf06-cc26xx.a(dbg-sprintf.o)
 .text.sprintf  0x0000be7c       0x34 contiki-srf06-cc26xx.a(dbg-sprintf.o)
                0x0000be7c                sprintf
 .text.fill_space
                0x0000beb0       0x3c contiki-srf06-cc26xx.a(strformat.o)
 .text.format_str_v
                0x0000beec      0x95c contiki-srf06-cc26xx.a(strformat.o)
                0x0000beec                format_str_v
 .text.autostart_start
                0x0000c848       0x18 contiki-srf06-cc26xx.a(autostart.o)
                0x0000c848                autostart_start
 .text.process_thread_ctimer_process
                0x0000c860       0x94 contiki-srf06-cc26xx.a(ctimer.o)
 .text.ctimer_init
                0x0000c8f4       0x28 contiki-srf06-cc26xx.a(ctimer.o)
                0x0000c8f4                ctimer_init
 .text.ctimer_set_with_process
                0x0000c91c       0x4c contiki-srf06-cc26xx.a(ctimer.o)
                0x0000c91c                ctimer_set_with_process
 .text.ctimer_set
                0x0000c968       0x18 contiki-srf06-cc26xx.a(ctimer.o)
                0x0000c968                ctimer_set
 .text.ctimer_reset
                0x0000c980       0x38 contiki-srf06-cc26xx.a(ctimer.o)
                0x0000c980                ctimer_reset
 .text.ctimer_restart
                0x0000c9b8       0x38 contiki-srf06-cc26xx.a(ctimer.o)
                0x0000c9b8                ctimer_restart
 .text.ctimer_stop
                0x0000c9f0       0x34 contiki-srf06-cc26xx.a(ctimer.o)
                0x0000c9f0                ctimer_stop
 .text.energest_init
                0x0000ca24        0x4 contiki-srf06-cc26xx.a(energest.o)
                0x0000ca24                energest_init
 .text.update_time
                0x0000ca28       0x44 contiki-srf06-cc26xx.a(etimer.o)
 .text.process_thread_etimer_process
                0x0000ca6c       0xc8 contiki-srf06-cc26xx.a(etimer.o)
 .text.add_timer
                0x0000cb34       0x54 contiki-srf06-cc26xx.a(etimer.o)
 .text.etimer_request_poll
                0x0000cb88        0xc contiki-srf06-cc26xx.a(etimer.o)
                0x0000cb88                etimer_request_poll
 .text.etimer_set
                0x0000cb94       0x14 contiki-srf06-cc26xx.a(etimer.o)
                0x0000cb94                etimer_set
 .text.etimer_reset
                0x0000cba8       0x14 contiki-srf06-cc26xx.a(etimer.o)
                0x0000cba8                etimer_reset
 .text.etimer_restart
                0x0000cbbc       0x14 contiki-srf06-cc26xx.a(etimer.o)
                0x0000cbbc                etimer_restart
 .text.etimer_expired
                0x0000cbd0        0xc contiki-srf06-cc26xx.a(etimer.o)
                0x0000cbd0                etimer_expired
 .text.etimer_expiration_time
                0x0000cbdc        0x8 contiki-srf06-cc26xx.a(etimer.o)
                0x0000cbdc                etimer_expiration_time
 .text.etimer_pending
                0x0000cbe4       0x10 contiki-srf06-cc26xx.a(etimer.o)
                0x0000cbe4                etimer_pending
 .text.etimer_next_expiration_time
                0x0000cbf4       0x14 contiki-srf06-cc26xx.a(etimer.o)
                0x0000cbf4                etimer_next_expiration_time
 .text.etimer_stop
                0x0000cc08       0x44 contiki-srf06-cc26xx.a(etimer.o)
                0x0000cc08                etimer_stop
 .text.exit_process
                0x0000cc4c       0xb0 contiki-srf06-cc26xx.a(process.o)
 .text.call_process.part.0
                0x0000ccfc       0x38 contiki-srf06-cc26xx.a(process.o)
 .text.do_poll  0x0000cd34       0x3c contiki-srf06-cc26xx.a(process.o)
 .text.process_alloc_event
                0x0000cd70       0x10 contiki-srf06-cc26xx.a(process.o)
                0x0000cd70                process_alloc_event
 .text.process_start
                0x0000cd80       0x48 contiki-srf06-cc26xx.a(process.o)
                0x0000cd80                process_start
 .text.process_exit
                0x0000cdc8        0xc contiki-srf06-cc26xx.a(process.o)
                0x0000cdc8                process_exit
 .text.process_init
                0x0000cdd4       0x34 contiki-srf06-cc26xx.a(process.o)
                0x0000cdd4                process_init
 .text.process_run
                0x0000ce08       0xd0 contiki-srf06-cc26xx.a(process.o)
                0x0000ce08                process_run
 .text.process_nevents
                0x0000ced8       0x14 contiki-srf06-cc26xx.a(process.o)
                0x0000ced8                process_nevents
 .text.process_post
                0x0000ceec       0x40 contiki-srf06-cc26xx.a(process.o)
                0x0000ceec                process_post
 .text.process_post_synch
                0x0000cf2c       0x18 contiki-srf06-cc26xx.a(process.o)
                0x0000cf2c                process_post_synch
 .text.process_poll
                0x0000cf44       0x18 contiki-srf06-cc26xx.a(process.o)
                0x0000cf44                process_poll
 .text.rtimer_init
                0x0000cf5c        0x4 contiki-srf06-cc26xx.a(rtimer.o)
                0x0000cf5c                rtimer_init
 .text.rtimer_set
                0x0000cf60       0x2c contiki-srf06-cc26xx.a(rtimer.o)
                0x0000cf60                rtimer_set
 .text.rtimer_run_next
                0x0000cf8c       0x28 contiki-srf06-cc26xx.a(rtimer.o)
                0x0000cf8c                rtimer_run_next
 .text.timer_set
                0x0000cfb4       0x10 contiki-srf06-cc26xx.a(timer.o)
                0x0000cfb4                timer_set
 .text.timer_reset
                0x0000cfc4        0xc contiki-srf06-cc26xx.a(timer.o)
                0x0000cfc4                timer_reset
 .text.timer_restart
                0x0000cfd0        0xc contiki-srf06-cc26xx.a(timer.o)
                0x0000cfd0                timer_restart
 .text.timer_expired
                0x0000cfdc       0x1c contiki-srf06-cc26xx.a(timer.o)
                0x0000cfdc                timer_expired
 .text.process_thread_serial_line_process
                0x0000cff8       0xa8 contiki-srf06-cc26xx.a(serial-line.o)
 .text.serial_line_input_byte
                0x0000d0a0       0x54 contiki-srf06-cc26xx.a(serial-line.o)
                0x0000d0a0                serial_line_input_byte
 .text.serial_line_init
                0x0000d0f4       0x24 contiki-srf06-cc26xx.a(serial-line.o)
                0x0000d0f4                serial_line_init
 .text.list_init
                0x0000d118        0x8 contiki-srf06-cc26xx.a(list.o)
                0x0000d118                list_init
 .text.list_head
                0x0000d120        0x4 contiki-srf06-cc26xx.a(list.o)
                0x0000d120                list_head
 .text.list_tail
                0x0000d124       0x14 contiki-srf06-cc26xx.a(list.o)
                0x0000d124                list_tail
 .text.list_add
                0x0000d138       0x5c contiki-srf06-cc26xx.a(list.o)
                0x0000d138                list_add
 .text.list_push
                0x0000d194       0x48 contiki-srf06-cc26xx.a(list.o)
                0x0000d194                list_push
 .text.list_remove
                0x0000d1dc       0x38 contiki-srf06-cc26xx.a(list.o)
                0x0000d1dc                list_remove
 .text.list_length
                0x0000d214       0x14 contiki-srf06-cc26xx.a(list.o)
                0x0000d214                list_length
 .text.list_item_next
                0x0000d228        0x8 contiki-srf06-cc26xx.a(list.o)
                0x0000d228                list_item_next
 .text.memb_init
                0x0000d230       0x24 contiki-srf06-cc26xx.a(memb.o)
                0x0000d230                memb_init
 .text.memb_alloc
                0x0000d254       0x3c contiki-srf06-cc26xx.a(memb.o)
                0x0000d254                memb_alloc
 .text.memb_free
                0x0000d290       0x3c contiki-srf06-cc26xx.a(memb.o)
                0x0000d290                memb_free
 .text.memb_inmemb
                0x0000d2cc       0x1c contiki-srf06-cc26xx.a(memb.o)
                0x0000d2cc                memb_inmemb
 .text.memb_numfree
                0x0000d2e8       0x1c contiki-srf06-cc26xx.a(memb.o)
                0x0000d2e8                memb_numfree
 .text.random_init
                0x0000d304        0x4 contiki-srf06-cc26xx.a(random.o)
                0x0000d304                random_init
 .text.random_rand
                0x0000d308        0xc contiki-srf06-cc26xx.a(random.o)
                0x0000d308                random_rand
 .text.ringbuf_init
                0x0000d314       0x10 contiki-srf06-cc26xx.a(ringbuf.o)
                0x0000d314                ringbuf_init
 .text.ringbuf_put
                0x0000d324       0x2c contiki-srf06-cc26xx.a(ringbuf.o)
                0x0000d324                ringbuf_put
 .text.ringbuf_get
                0x0000d350       0x24 contiki-srf06-cc26xx.a(ringbuf.o)
                0x0000d350                ringbuf_get
 .text.sicslowpan_init
                0x0000d374       0x24 contiki-srf06-cc26xx.a(sicslowpan.o)
                0x0000d374                sicslowpan_init
 .text.set_packet_attrs
                0x0000d398       0x50 contiki-srf06-cc26xx.a(sicslowpan.o)
 .text.compress_addr_64
                0x0000d3e8       0x9c contiki-srf06-cc26xx.a(sicslowpan.o)
 .text.addr_context_lookup_by_prefix
                0x0000d484       0x28 contiki-srf06-cc26xx.a(sicslowpan.o)
 .text.send_packet
                0x0000d4ac       0x24 contiki-srf06-cc26xx.a(sicslowpan.o)
 .text.packet_sent
                0x0000d4d0       0x28 contiki-srf06-cc26xx.a(sicslowpan.o)
 .text.store_fragment
                0x0000d4f8       0x68 contiki-srf06-cc26xx.a(sicslowpan.o)
 .text.add_fragment
                0x0000d560      0x18c contiki-srf06-cc26xx.a(sicslowpan.o)
 .text.uncompress_addr
                0x0000d6ec       0xb8 contiki-srf06-cc26xx.a(sicslowpan.o)
 .text.input    0x0000d7a4      0x68c contiki-srf06-cc26xx.a(sicslowpan.o)
 .text.output   0x0000de30      0x704 contiki-srf06-cc26xx.a(sicslowpan.o)
 .text.sicslowpan_get_last_rssi
                0x0000e534        0xc contiki-srf06-cc26xx.a(sicslowpan.o)
                0x0000e534                sicslowpan_get_last_rssi
 .text.chksum   0x0000e540       0x50 contiki-srf06-cc26xx.a(uip6.o)
 .text.upper_layer_chksum
                0x0000e590       0x58 contiki-srf06-cc26xx.a(uip6.o)
 .text.ext_hdr_options_process
                0x0000e5e8       0xd0 contiki-srf06-cc26xx.a(uip6.o)
 .text.uip_add32
                0x0000e6b8       0x58 contiki-srf06-cc26xx.a(uip6.o)
                0x0000e6b8                uip_add32
 .text.unlikely.uip_add_rcv_nxt
                0x0000e710       0x2c contiki-srf06-cc26xx.a(uip6.o)
 .text.uip_icmp6chksum
                0x0000e73c        0x8 contiki-srf06-cc26xx.a(uip6.o)
                0x0000e73c                uip_icmp6chksum
 .text.uip_init
                0x0000e744       0x64 contiki-srf06-cc26xx.a(uip6.o)
                0x0000e744                uip_init
 .text.uip_connect
                0x0000e7a8      0x11c contiki-srf06-cc26xx.a(uip6.o)
                0x0000e7a8                uip_connect
 .text.remove_ext_hdr
                0x0000e8c4       0x54 contiki-srf06-cc26xx.a(uip6.o)
                0x0000e8c4                remove_ext_hdr
 .text.uip_udp_new
                0x0000e918       0xe4 contiki-srf06-cc26xx.a(uip6.o)
                0x0000e918                uip_udp_new
 .text.uip_unlisten
                0x0000e9fc       0x58 contiki-srf06-cc26xx.a(uip6.o)
                0x0000e9fc                uip_unlisten
 .text.uip_listen
                0x0000ea54       0x4c contiki-srf06-cc26xx.a(uip6.o)
                0x0000ea54                uip_listen
 .text.uip_process
                0x0000eaa0     0x1190 contiki-srf06-cc26xx.a(uip6.o)
                0x0000eaa0                uip_process
 .text.uip_htons
                0x0000fc30        0x8 contiki-srf06-cc26xx.a(uip6.o)
                0x0000fc30                uip_htons
 .text.uip_htonl
                0x0000fc38       0x14 contiki-srf06-cc26xx.a(uip6.o)
                0x0000fc38                uip_htonl
 .text.uip_send
                0x0000fc4c       0x4c contiki-srf06-cc26xx.a(uip6.o)
                0x0000fc4c                uip_send
 .text.uip_ds6_list_loop
                0x0000fc98       0x5c contiki-srf06-cc26xx.a(uip-ds6.o)
                0x0000fc98                uip_ds6_list_loop
 .text.uip_ds6_prefix_add
                0x0000fcf4       0x6c contiki-srf06-cc26xx.a(uip-ds6.o)
                0x0000fcf4                uip_ds6_prefix_add
 .text.uip_ds6_is_addr_onlink
                0x0000fd60       0x40 contiki-srf06-cc26xx.a(uip-ds6.o)
                0x0000fd60                uip_ds6_is_addr_onlink
 .text.uip_ds6_addr_lookup
                0x0000fda0       0x30 contiki-srf06-cc26xx.a(uip-ds6.o)
                0x0000fda0                uip_ds6_addr_lookup
 .text.uip_ds6_get_link_local
                0x0000fdd0       0x50 contiki-srf06-cc26xx.a(uip-ds6.o)
                0x0000fdd0                uip_ds6_get_link_local
 .text.uip_ds6_get_global
                0x0000fe20       0x50 contiki-srf06-cc26xx.a(uip-ds6.o)
                0x0000fe20                uip_ds6_get_global
 .text.uip_ds6_maddr_add
                0x0000fe70       0x50 contiki-srf06-cc26xx.a(uip-ds6.o)
                0x0000fe70                uip_ds6_maddr_add
 .text.uip_ds6_addr_add
                0x0000fec0       0xa8 contiki-srf06-cc26xx.a(uip-ds6.o)
                0x0000fec0                uip_ds6_addr_add
 .text.uip_ds6_maddr_lookup
                0x0000ff68       0x30 contiki-srf06-cc26xx.a(uip-ds6.o)
                0x0000ff68                uip_ds6_maddr_lookup
 .text.uip_ds6_addr_rm
                0x0000ff98       0x48 contiki-srf06-cc26xx.a(uip-ds6.o)
                0x0000ff98                uip_ds6_addr_rm
 .text.uip_ds6_periodic
                0x0000ffe0       0x60 contiki-srf06-cc26xx.a(uip-ds6.o)
                0x0000ffe0                uip_ds6_periodic
 .text.uip_ds6_select_src
                0x00010040      0x118 contiki-srf06-cc26xx.a(uip-ds6.o)
                0x00010040                uip_ds6_select_src
 .text.uip_ds6_set_addr_iid
                0x00010158       0x14 contiki-srf06-cc26xx.a(uip-ds6.o)
                0x00010158                uip_ds6_set_addr_iid
 .text.uip_ds6_compute_reachable_time
                0x0001016c       0x2c contiki-srf06-cc26xx.a(uip-ds6.o)
                0x0001016c                uip_ds6_compute_reachable_time
 .text.uip_ds6_init
                0x00010198       0xf8 contiki-srf06-cc26xx.a(uip-ds6.o)
                0x00010198                uip_ds6_init
 .text.uip_ds6_nbr_rm
                0x00010290       0x20 contiki-srf06-cc26xx.a(uip-ds6-nbr.o)
                0x00010290                uip_ds6_nbr_rm
 .text.uip_ds6_neighbors_init
                0x000102b0       0x14 contiki-srf06-cc26xx.a(uip-ds6-nbr.o)
                0x000102b0                uip_ds6_neighbors_init
 .text.uip_ds6_nbr_add
                0x000102c4       0x54 contiki-srf06-cc26xx.a(uip-ds6-nbr.o)
                0x000102c4                uip_ds6_nbr_add
 .text.uip_ds6_nbr_get_ll
                0x00010318       0x10 contiki-srf06-cc26xx.a(uip-ds6-nbr.o)
                0x00010318                uip_ds6_nbr_get_ll
 .text.uip_ds6_nbr_lookup
                0x00010328       0x3c contiki-srf06-cc26xx.a(uip-ds6-nbr.o)
                0x00010328                uip_ds6_nbr_lookup
 .text.uip_ds6_nbr_ipaddr_from_lladdr
                0x00010364       0x10 contiki-srf06-cc26xx.a(uip-ds6-nbr.o)
                0x00010364                uip_ds6_nbr_ipaddr_from_lladdr
 .text.uip_ds6_nbr_lladdr_from_ipaddr
                0x00010374       0x1c contiki-srf06-cc26xx.a(uip-ds6-nbr.o)
                0x00010374                uip_ds6_nbr_lladdr_from_ipaddr
 .text.uip_ds6_link_neighbor_callback
                0x00010390       0x2c contiki-srf06-cc26xx.a(uip-ds6-nbr.o)
                0x00010390                uip_ds6_link_neighbor_callback
 .text.uip_ds6_neighbor_periodic
                0x000103bc       0x70 contiki-srf06-cc26xx.a(uip-ds6-nbr.o)
                0x000103bc                uip_ds6_neighbor_periodic
 .text.call_route_callback
                0x0001042c       0x50 contiki-srf06-cc26xx.a(uip-ds6-route.o)
 .text.uip_ds6_route_init
                0x0001047c       0x4c contiki-srf06-cc26xx.a(uip-ds6-route.o)
                0x0001047c                uip_ds6_route_init
 .text.uip_ds6_route_nexthop
                0x000104c8       0x1c contiki-srf06-cc26xx.a(uip-ds6-route.o)
                0x000104c8                uip_ds6_route_nexthop
 .text.uip_ds6_route_head
                0x000104e4        0xc contiki-srf06-cc26xx.a(uip-ds6-route.o)
                0x000104e4                uip_ds6_route_head
 .text.uip_ds6_route_next
                0x000104f0        0x8 contiki-srf06-cc26xx.a(uip-ds6-route.o)
                0x000104f0                uip_ds6_route_next
 .text.uip_ds6_route_lookup
                0x000104f8       0x78 contiki-srf06-cc26xx.a(uip-ds6-route.o)
                0x000104f8                uip_ds6_route_lookup
 .text.uip_ds6_route_rm
                0x00010570       0xac contiki-srf06-cc26xx.a(uip-ds6-route.o)
                0x00010570                uip_ds6_route_rm
 .text.rm_routelist
                0x0001061c       0x38 contiki-srf06-cc26xx.a(uip-ds6-route.o)
 .text.rm_routelist_callback
                0x00010654        0x4 contiki-srf06-cc26xx.a(uip-ds6-route.o)
 .text.uip_ds6_route_add
                0x00010658      0x120 contiki-srf06-cc26xx.a(uip-ds6-route.o)
                0x00010658                uip_ds6_route_add
 .text.uip_ds6_defrt_rm
                0x00010778       0x48 contiki-srf06-cc26xx.a(uip-ds6-route.o)
                0x00010778                uip_ds6_defrt_rm
 .text.uip_ds6_defrt_lookup
                0x000107c0       0x34 contiki-srf06-cc26xx.a(uip-ds6-route.o)
                0x000107c0                uip_ds6_defrt_lookup
 .text.uip_ds6_defrt_add
                0x000107f4       0x5c contiki-srf06-cc26xx.a(uip-ds6-route.o)
                0x000107f4                uip_ds6_defrt_add
 .text.uip_ds6_defrt_choose
                0x00010850       0x34 contiki-srf06-cc26xx.a(uip-ds6-route.o)
                0x00010850                uip_ds6_defrt_choose
 .text.uip_ds6_defrt_periodic
                0x00010884       0x40 contiki-srf06-cc26xx.a(uip-ds6-route.o)
                0x00010884                uip_ds6_defrt_periodic
 .text.echo_reply_input
                0x000108c4      0x118 contiki-srf06-cc26xx.a(uip-icmp6.o)
 .text.echo_request_input
                0x000109dc      0x108 contiki-srf06-cc26xx.a(uip-icmp6.o)
 .text.uip_icmp6_input
                0x00010ae4       0x3c contiki-srf06-cc26xx.a(uip-icmp6.o)
                0x00010ae4                uip_icmp6_input
 .text.uip_icmp6_register_input_handler
                0x00010b20        0xc contiki-srf06-cc26xx.a(uip-icmp6.o)
                0x00010b20                uip_icmp6_register_input_handler
 .text.uip_icmp6_error_output
                0x00010b2c      0x158 contiki-srf06-cc26xx.a(uip-icmp6.o)
                0x00010b2c                uip_icmp6_error_output
 .text.uip_icmp6_send
                0x00010c84       0x80 contiki-srf06-cc26xx.a(uip-icmp6.o)
                0x00010c84                uip_icmp6_send
 .text.uip_icmp6_echo_reply_callback_add
                0x00010d04       0x14 contiki-srf06-cc26xx.a(uip-icmp6.o)
                0x00010d04                uip_icmp6_echo_reply_callback_add
 .text.uip_icmp6_init
                0x00010d18       0x24 contiki-srf06-cc26xx.a(uip-icmp6.o)
                0x00010d18                uip_icmp6_init
 .text.uip_nd6_init
                0x00010d3c        0x4 contiki-srf06-cc26xx.a(uip-nd6.o)
                0x00010d3c                uip_nd6_init
 .text.psock_send
                0x00010d40       0xa4 contiki-srf06-cc26xx.a(psock.o)
                0x00010d40                psock_send
 .text.psock_datalen
                0x00010de4        0xc contiki-srf06-cc26xx.a(psock.o)
                0x00010de4                psock_datalen
 .text.psock_readto
                0x00010df0       0xbc contiki-srf06-cc26xx.a(psock.o)
                0x00010df0                psock_readto
 .text.psock_readbuf_len
                0x00010eac       0xf4 contiki-srf06-cc26xx.a(psock.o)
                0x00010eac                psock_readbuf_len
 .text.psock_init
                0x00010fa0       0x18 contiki-srf06-cc26xx.a(psock.o)
                0x00010fa0                psock_init
 .text.start_periodic_tcp_timer
                0x00010fb8       0x1c contiki-srf06-cc26xx.a(tcpip.o)
 .text.tcpip_set_outputfunc
                0x00010fd4        0xc contiki-srf06-cc26xx.a(tcpip.o)
                0x00010fd4                tcpip_set_outputfunc
 .text.tcp_connect
                0x00010fe0       0x2c contiki-srf06-cc26xx.a(tcpip.o)
                0x00010fe0                tcp_connect
 .text.tcp_unlisten
                0x0001100c       0x54 contiki-srf06-cc26xx.a(tcpip.o)
                0x0001100c                tcp_unlisten
 .text.tcp_listen
                0x00011060       0x58 contiki-srf06-cc26xx.a(tcpip.o)
                0x00011060                tcp_listen
 .text.tcp_attach
                0x000110b8       0x10 contiki-srf06-cc26xx.a(tcpip.o)
                0x000110b8                tcp_attach
 .text.udp_new  0x000110c8       0x18 contiki-srf06-cc26xx.a(tcpip.o)
                0x000110c8                udp_new
 .text.tcpip_icmp6_call
                0x000110e0       0x28 contiki-srf06-cc26xx.a(tcpip.o)
                0x000110e0                tcpip_icmp6_call
 .text.tcpip_input
                0x00011108       0x24 contiki-srf06-cc26xx.a(tcpip.o)
                0x00011108                tcpip_input
 .text.tcpip_ipv6_output
                0x0001112c       0xc8 contiki-srf06-cc26xx.a(tcpip.o)
                0x0001112c                tcpip_ipv6_output
 .text.process_thread_tcpip_process
                0x000111f4      0x200 contiki-srf06-cc26xx.a(tcpip.o)
 .text.tcpip_uipcall
                0x000113f4       0xa4 contiki-srf06-cc26xx.a(tcpip.o)
                0x000113f4                tcpip_uipcall
 .text.newdata  0x00011498       0x58 contiki-srf06-cc26xx.a(tcp-socket.o)
 .text.senddata
                0x000114f0       0x30 contiki-srf06-cc26xx.a(tcp-socket.o)
 .text.process_thread_tcp_socket_process
                0x00011520      0x294 contiki-srf06-cc26xx.a(tcp-socket.o)
 .text.tcp_socket_register
                0x000117b4       0x70 contiki-srf06-cc26xx.a(tcp-socket.o)
                0x000117b4                tcp_socket_register
 .text.tcp_socket_connect
                0x00011824       0x4c contiki-srf06-cc26xx.a(tcp-socket.o)
                0x00011824                tcp_socket_connect
 .text.tcp_socket_unlisten
                0x00011870       0x3c contiki-srf06-cc26xx.a(tcp-socket.o)
                0x00011870                tcp_socket_unlisten
 .text.tcp_socket_send
                0x000118ac       0x38 contiki-srf06-cc26xx.a(tcp-socket.o)
                0x000118ac                tcp_socket_send
 .text.tcp_socket_close
                0x000118e4       0x1c contiki-srf06-cc26xx.a(tcp-socket.o)
                0x000118e4                tcp_socket_close
 .text.tcp_socket_unregister
                0x00011900       0x2c contiki-srf06-cc26xx.a(tcp-socket.o)
                0x00011900                tcp_socket_unregister
 .text.uip_debug_ipaddr_print
                0x0001192c       0xb0 contiki-srf06-cc26xx.a(uip-debug.o)
                0x0001192c                uip_debug_ipaddr_print
 .text.uiplib_ip6addrconv
                0x000119dc       0xd0 contiki-srf06-cc26xx.a(uiplib.o)
                0x000119dc                uiplib_ip6addrconv
 .text.uip_udp_packet_send
                0x00011aac       0x44 contiki-srf06-cc26xx.a(uip-udp-packet.)
                0x00011aac                uip_udp_packet_send
 .text.uip_udp_packet_sendto
                0x00011af0       0x48 contiki-srf06-cc26xx.a(uip-udp-packet.)
                0x00011af0                uip_udp_packet_sendto
 .text.rpl_get_mode
                0x00011b38        0xc contiki-srf06-cc26xx.a(rpl.o)
                0x00011b38                rpl_get_mode
 .text.rpl_purge_routes
                0x00011b44       0x7c contiki-srf06-cc26xx.a(rpl.o)
                0x00011b44                rpl_purge_routes
 .text.rpl_remove_routes
                0x00011bc0       0x24 contiki-srf06-cc26xx.a(rpl.o)
                0x00011bc0                rpl_remove_routes
 .text.rpl_remove_routes_by_nexthop
                0x00011be4       0x44 contiki-srf06-cc26xx.a(rpl.o)
                0x00011be4                rpl_remove_routes_by_nexthop
 .text.rpl_add_route
                0x00011c28       0x2c contiki-srf06-cc26xx.a(rpl.o)
                0x00011c28                rpl_add_route
 .text.rpl_link_neighbor_callback
                0x00011c54       0x74 contiki-srf06-cc26xx.a(rpl.o)
                0x00011c54                rpl_link_neighbor_callback
 .text.rpl_ipv6_neighbor_callback
                0x00011cc8       0x30 contiki-srf06-cc26xx.a(rpl.o)
                0x00011cc8                rpl_ipv6_neighbor_callback
 .text.rpl_purge_dags
                0x00011cf8       0x40 contiki-srf06-cc26xx.a(rpl.o)
                0x00011cf8                rpl_purge_dags
 .text.rpl_init
                0x00011d38       0x58 contiki-srf06-cc26xx.a(rpl.o)
                0x00011d38                rpl_init
 .text.rpl_set_preferred_parent
                0x00011d90       0x2c contiki-srf06-cc26xx.a(rpl-dag.o)
 .text.set_ip_from_prefix
                0x00011dbc       0x24 contiki-srf06-cc26xx.a(rpl-dag.o)
 .text.check_prefix
                0x00011de0       0x78 contiki-srf06-cc26xx.a(rpl-dag.o)
 .text.find_parent_any_dag_any_instance
                0x00011e58       0x1c contiki-srf06-cc26xx.a(rpl-dag.o)
 .text.lollipop_greater_than
                0x00011e74       0x3c contiki-srf06-cc26xx.a(rpl-dag.o)
 .text.rpl_get_nbr
                0x00011eb0       0x28 contiki-srf06-cc26xx.a(rpl-dag.o)
                0x00011eb0                rpl_get_nbr
 .text.rpl_dag_init
                0x00011ed8       0x14 contiki-srf06-cc26xx.a(rpl-dag.o)
                0x00011ed8                rpl_dag_init
 .text.rpl_get_parent
                0x00011eec       0x10 contiki-srf06-cc26xx.a(rpl-dag.o)
                0x00011eec                rpl_get_parent
 .text.rpl_get_parent_ipaddr
                0x00011efc       0x18 contiki-srf06-cc26xx.a(rpl-dag.o)
                0x00011efc                rpl_get_parent_ipaddr
 .text.rpl_repair_root
                0x00011f14       0x60 contiki-srf06-cc26xx.a(rpl-dag.o)
                0x00011f14                rpl_repair_root
 .text.rpl_set_prefix
                0x00011f74       0x94 contiki-srf06-cc26xx.a(rpl-dag.o)
                0x00011f74                rpl_set_prefix
 .text.rpl_set_default_route
                0x00012008       0x3c contiki-srf06-cc26xx.a(rpl-dag.o)
                0x00012008                rpl_set_default_route
 .text.rpl_alloc_instance
                0x00012044       0x34 contiki-srf06-cc26xx.a(rpl-dag.o)
                0x00012044                rpl_alloc_instance
 .text.rpl_alloc_dag
                0x00012078       0x5c contiki-srf06-cc26xx.a(rpl-dag.o)
                0x00012078                rpl_alloc_dag
 .text.rpl_add_parent
                0x000120d4       0x44 contiki-srf06-cc26xx.a(rpl-dag.o)
                0x000120d4                rpl_add_parent
 .text.rpl_find_parent
                0x00012118       0x18 contiki-srf06-cc26xx.a(rpl-dag.o)
                0x00012118                rpl_find_parent
 .text.rpl_find_parent_any_dag
                0x00012130       0x20 contiki-srf06-cc26xx.a(rpl-dag.o)
                0x00012130                rpl_find_parent_any_dag
 .text.rpl_select_parent
                0x00012150       0x84 contiki-srf06-cc26xx.a(rpl-dag.o)
                0x00012150                rpl_select_parent
 .text.rpl_select_dag
                0x000121d4      0x174 contiki-srf06-cc26xx.a(rpl-dag.o)
                0x000121d4                rpl_select_dag
 .text.rpl_nullify_parent
                0x00012348       0x4c contiki-srf06-cc26xx.a(rpl-dag.o)
                0x00012348                rpl_nullify_parent
 .text.rpl_remove_parent
                0x00012394       0x1c contiki-srf06-cc26xx.a(rpl-dag.o)
                0x00012394                rpl_remove_parent
 .text.nbr_callback
                0x000123b0        0x4 contiki-srf06-cc26xx.a(rpl-dag.o)
 .text.remove_parents.constprop.6
                0x000123b4       0x48 contiki-srf06-cc26xx.a(rpl-dag.o)
 .text.rpl_free_dag
                0x000123fc       0x38 contiki-srf06-cc26xx.a(rpl-dag.o)
                0x000123fc                rpl_free_dag
 .text.rpl_move_parent
                0x00012434       0x4c contiki-srf06-cc26xx.a(rpl-dag.o)
                0x00012434                rpl_move_parent
 .text.rpl_get_any_dag
                0x00012480       0x18 contiki-srf06-cc26xx.a(rpl-dag.o)
                0x00012480                rpl_get_any_dag
 .text.rpl_get_instance
                0x00012498       0x20 contiki-srf06-cc26xx.a(rpl-dag.o)
                0x00012498                rpl_get_instance
 .text.rpl_join_instance
                0x000124b8      0x128 contiki-srf06-cc26xx.a(rpl-dag.o)
                0x000124b8                rpl_join_instance
 .text.rpl_local_repair
                0x000125e0       0x68 contiki-srf06-cc26xx.a(rpl-dag.o)
                0x000125e0                rpl_local_repair
 .text.rpl_process_parent_event
                0x00012648       0x60 contiki-srf06-cc26xx.a(rpl-dag.o)
                0x00012648                rpl_process_parent_event
 .text.rpl_add_dag
                0x000126a8      0x144 contiki-srf06-cc26xx.a(rpl-dag.o)
                0x000126a8                rpl_add_dag
 .text.rpl_recalculate_ranks
                0x000127ec       0x50 contiki-srf06-cc26xx.a(rpl-dag.o)
                0x000127ec                rpl_recalculate_ranks
 .text.rpl_process_dio
                0x0001283c      0x310 contiki-srf06-cc26xx.a(rpl-dag.o)
                0x0001283c                rpl_process_dio
 .text.rpl_verify_header
                0x00012b4c      0x104 contiki-srf06-cc26xx.a(rpl-ext-header.)
                0x00012b4c                rpl_verify_header
 .text.rpl_update_header_empty
                0x00012c50      0x138 contiki-srf06-cc26xx.a(rpl-ext-header.)
                0x00012c50                rpl_update_header_empty
 .text.rpl_update_header_final
                0x00012d88       0x8c contiki-srf06-cc26xx.a(rpl-ext-header.)
                0x00012d88                rpl_update_header_final
 .text.rpl_invert_header
                0x00012e14       0x68 contiki-srf06-cc26xx.a(rpl-ext-header.)
                0x00012e14                rpl_invert_header
 .text.rpl_insert_header
                0x00012e7c       0x1c contiki-srf06-cc26xx.a(rpl-ext-header.)
                0x00012e7c                rpl_insert_header
 .text.dao_ack_input
                0x00012e98       0x14 contiki-srf06-cc26xx.a(rpl-icmp6.o)
 .text.dio_input
                0x00012eac      0x2ec contiki-srf06-cc26xx.a(rpl-icmp6.o)
 .text.dis_output
                0x00013198       0x58 contiki-srf06-cc26xx.a(rpl-icmp6.o)
                0x00013198                dis_output
 .text.dio_output
                0x000131f0      0x2a4 contiki-srf06-cc26xx.a(rpl-icmp6.o)
                0x000131f0                dio_output
 .text.dis_input
                0x00013494       0x40 contiki-srf06-cc26xx.a(rpl-icmp6.o)
 .text.dao_output_target
                0x000134d4       0xf4 contiki-srf06-cc26xx.a(rpl-icmp6.o)
                0x000134d4                dao_output_target
 .text.dao_output
                0x000135c8       0x5c contiki-srf06-cc26xx.a(rpl-icmp6.o)
                0x000135c8                dao_output
 .text.dao_ack_output
                0x00013624       0x30 contiki-srf06-cc26xx.a(rpl-icmp6.o)
                0x00013624                dao_ack_output
 .text.dao_input
                0x00013654      0x200 contiki-srf06-cc26xx.a(rpl-icmp6.o)
 .text.rpl_icmp6_register_handlers
                0x00013854       0x30 contiki-srf06-cc26xx.a(rpl-icmp6.o)
                0x00013854                rpl_icmp6_register_handlers
 .text.reset    0x00013884        0x4 contiki-srf06-cc26xx.a(rpl-mrhof.o)
 .text.update_metric_container
                0x00013888        0x8 contiki-srf06-cc26xx.a(rpl-mrhof.o)
 .text.calculate_rank
                0x00013890       0x44 contiki-srf06-cc26xx.a(rpl-mrhof.o)
 .text.neighbor_link_callback
                0x000138d4       0x50 contiki-srf06-cc26xx.a(rpl-mrhof.o)
 .text.best_dag
                0x00013924       0x2c contiki-srf06-cc26xx.a(rpl-mrhof.o)
 .text.best_parent
                0x00013950       0x60 contiki-srf06-cc26xx.a(rpl-mrhof.o)
 .text.new_dio_interval
                0x000139b0       0x60 contiki-srf06-cc26xx.a(rpl-timers.o)
 .text.handle_periodic_timer
                0x00013a10       0x3c contiki-srf06-cc26xx.a(rpl-timers.o)
 .text.set_dao_lifetime_timer
                0x00013a4c       0x3c contiki-srf06-cc26xx.a(rpl-timers.o)
 .text.handle_unicast_dio_timer
                0x00013a88       0x1c contiki-srf06-cc26xx.a(rpl-timers.o)
 .text.handle_dio_timer
                0x00013aa4       0x8c contiki-srf06-cc26xx.a(rpl-timers.o)
 .text.schedule_dao
                0x00013b30       0x54 contiki-srf06-cc26xx.a(rpl-timers.o)
 .text.handle_dao_timer
                0x00013b84       0x5c contiki-srf06-cc26xx.a(rpl-timers.o)
 .text.rpl_reset_periodic_timer
                0x00013be0       0x3c contiki-srf06-cc26xx.a(rpl-timers.o)
                0x00013be0                rpl_reset_periodic_timer
 .text.rpl_reset_dio_timer
                0x00013c1c       0x1c contiki-srf06-cc26xx.a(rpl-timers.o)
                0x00013c1c                rpl_reset_dio_timer
 .text.rpl_schedule_dao
                0x00013c38        0x8 contiki-srf06-cc26xx.a(rpl-timers.o)
                0x00013c38                rpl_schedule_dao
 .text.rpl_schedule_unicast_dio_immediately
                0x00013c40       0x14 contiki-srf06-cc26xx.a(rpl-timers.o)
                0x00013c40                rpl_schedule_unicast_dio_immediately
 .text.rpl_schedule_probing
                0x00013c54       0x38 contiki-srf06-cc26xx.a(rpl-timers.o)
                0x00013c54                rpl_schedule_probing
 .text.handle_probing_timer
                0x00013c8c       0xd8 contiki-srf06-cc26xx.a(rpl-timers.o)
 .text.AONBatMonTemperatureGetDegC
                0x00013d64       0x30 contiki-srf06-cc26xx.a(aon_batmon.o)
                0x00013d64                AONBatMonTemperatureGetDegC
 .text.NOROM_AONRTCCurrentCompareValueGet
                0x00013d94       0x24 contiki-srf06-cc26xx.a(aon_rtc.o)
                0x00013d94                NOROM_AONRTCCurrentCompareValueGet
 .text.ChipInfo_GetSupportedProtocol_BV
                0x00013db8       0x10 contiki-srf06-cc26xx.a(chipinfo.o)
                0x00013db8                ChipInfo_GetSupportedProtocol_BV
 .text.ChipInfo_GetChipFamily
                0x00013dc8       0x38 contiki-srf06-cc26xx.a(chipinfo.o)
                0x00013dc8                ChipInfo_GetChipFamily
 .text.ChipInfo_GetHwRevision
                0x00013e00       0x98 contiki-srf06-cc26xx.a(chipinfo.o)
                0x00013e00                ChipInfo_GetHwRevision
 .text.ThisCodeIsBuiltForCC26xxHwRev22AndLater_HaltIfViolated
                0x00013e98       0x2c contiki-srf06-cc26xx.a(chipinfo.o)
                0x00013e98                ThisCodeIsBuiltForCC26xxHwRev22AndLater_HaltIfViolated
 .text.NOROM_CPUcpsid
                0x00013ec4        0x8 contiki-srf06-cc26xx.a(cpu.o)
                0x00013ec4                NOROM_CPUcpsid
 .text.NOROM_CPUcpsie
                0x00013ecc        0x8 contiki-srf06-cc26xx.a(cpu.o)
                0x00013ecc                NOROM_CPUcpsie
 .text.NOROM_CPUdelay
                0x00013ed4        0x8 contiki-srf06-cc26xx.a(cpu.o)
                0x00013ed4                NOROM_CPUdelay
 .text.NOROM_DDI16BitfieldWrite
                0x00013edc       0x4c contiki-srf06-cc26xx.a(ddi.o)
                0x00013edc                NOROM_DDI16BitfieldWrite
 .text.NOROM_DDI16BitfieldRead
                0x00013f28       0x4c contiki-srf06-cc26xx.a(ddi.o)
                0x00013f28                NOROM_DDI16BitfieldRead
 .text.NOROM_OSCClockSourceSet
                0x00013f74       0x50 contiki-srf06-cc26xx.a(osc.o)
                0x00013f74                NOROM_OSCClockSourceSet
 .text.NOROM_OSCClockSourceGet
                0x00013fc4       0x20 contiki-srf06-cc26xx.a(osc.o)
                0x00013fc4                NOROM_OSCClockSourceGet
 .text.NOROM_OSCInterfaceEnable
                0x00013fe4       0x34 contiki-srf06-cc26xx.a(osc.o)
                0x00013fe4                NOROM_OSCInterfaceEnable
 .text.NOROM_PowerCtrlSourceSet
                0x00014018       0x30 contiki-srf06-cc26xx.a(pwr_ctrl.o)
                0x00014018                NOROM_PowerCtrlSourceSet
 .text.HapiTrimDeviceShutDown
                0x00014048      0x4e8 contiki-srf06-cc26xx.a(setup.o)
 .text.trimDevice
                0x00014530       0xfc contiki-srf06-cc26xx.a(setup.o)
                0x00014530                trimDevice
 .text.SysCtrlSetRechargeBeforePowerDown
                0x0001462c      0x1d8 contiki-srf06-cc26xx.a(sys_ctrl.o)
                0x0001462c                SysCtrlSetRechargeBeforePowerDown
 .text.SysCtrlAdjustRechargeAfterPowerDown
                0x00014804       0x70 contiki-srf06-cc26xx.a(sys_ctrl.o)
                0x00014804                SysCtrlAdjustRechargeAfterPowerDown
 .text.SysCtrl_DCDC_VoltageConditionalControl
                0x00014874       0x78 contiki-srf06-cc26xx.a(sys_ctrl.o)
                0x00014874                SysCtrl_DCDC_VoltageConditionalControl
 .text.linkaddr_copy
                0x000148ec        0xc contiki-srf06-cc26xx.a(linkaddr.o)
                0x000148ec                linkaddr_copy
 .text.linkaddr_cmp
                0x000148f8       0x10 contiki-srf06-cc26xx.a(linkaddr.o)
                0x000148f8                linkaddr_cmp
 .text.index_from_lladdr
                0x00014908       0x50 contiki-srf06-cc26xx.a(nbr-table.o)
 .text.nbr_table_register
                0x00014958       0x2c contiki-srf06-cc26xx.a(nbr-table.o)
                0x00014958                nbr_table_register
 .text.nbr_table_next
                0x00014984       0x7c contiki-srf06-cc26xx.a(nbr-table.o)
                0x00014984                nbr_table_next
 .text.nbr_table_head
                0x00014a00       0x70 contiki-srf06-cc26xx.a(nbr-table.o)
                0x00014a00                nbr_table_head
 .text.nbr_table_add_lladdr
                0x00014a70      0x1b4 contiki-srf06-cc26xx.a(nbr-table.o)
                0x00014a70                nbr_table_add_lladdr
 .text.nbr_table_get_from_lladdr
                0x00014c24       0x44 contiki-srf06-cc26xx.a(nbr-table.o)
                0x00014c24                nbr_table_get_from_lladdr
 .text.nbr_table_remove
                0x00014c68       0x5c contiki-srf06-cc26xx.a(nbr-table.o)
                0x00014c68                nbr_table_remove
 .text.nbr_table_lock
                0x00014cc4       0x34 contiki-srf06-cc26xx.a(nbr-table.o)
                0x00014cc4                nbr_table_lock
 .text.nbr_table_unlock
                0x00014cf8       0x38 contiki-srf06-cc26xx.a(nbr-table.o)
                0x00014cf8                nbr_table_unlock
 .text.nbr_table_get_lladdr
                0x00014d30       0x30 contiki-srf06-cc26xx.a(nbr-table.o)
                0x00014d30                nbr_table_get_lladdr
 .text.netstack_init
                0x00014d60       0x38 contiki-srf06-cc26xx.a(netstack.o)
                0x00014d60                netstack_init
 .text.packetbuf_copyto
                0x00014d98       0x50 contiki-srf06-cc26xx.a(packetbuf.o)
                0x00014d98                packetbuf_copyto
 .text.packetbuf_hdralloc
                0x00014de8       0x44 contiki-srf06-cc26xx.a(packetbuf.o)
                0x00014de8                packetbuf_hdralloc
 .text.packetbuf_hdrreduce
                0x00014e2c       0x2c contiki-srf06-cc26xx.a(packetbuf.o)
                0x00014e2c                packetbuf_hdrreduce
 .text.packetbuf_set_datalen
                0x00014e58        0xc contiki-srf06-cc26xx.a(packetbuf.o)
                0x00014e58                packetbuf_set_datalen
 .text.packetbuf_dataptr
                0x00014e64       0x14 contiki-srf06-cc26xx.a(packetbuf.o)
                0x00014e64                packetbuf_dataptr
 .text.packetbuf_hdrptr
                0x00014e78       0x14 contiki-srf06-cc26xx.a(packetbuf.o)
                0x00014e78                packetbuf_hdrptr
 .text.packetbuf_datalen
                0x00014e8c        0xc contiki-srf06-cc26xx.a(packetbuf.o)
                0x00014e8c                packetbuf_datalen
 .text.packetbuf_totlen
                0x00014e98       0x28 contiki-srf06-cc26xx.a(packetbuf.o)
                0x00014e98                packetbuf_totlen
 .text.packetbuf_attr_clear
                0x00014ec0       0x38 contiki-srf06-cc26xx.a(packetbuf.o)
                0x00014ec0                packetbuf_attr_clear
 .text.packetbuf_clear
                0x00014ef8       0x34 contiki-srf06-cc26xx.a(packetbuf.o)
                0x00014ef8                packetbuf_clear
 .text.packetbuf_copyfrom
                0x00014f2c       0x4c contiki-srf06-cc26xx.a(packetbuf.o)
                0x00014f2c                packetbuf_copyfrom
 .text.packetbuf_attr_copyto
                0x00014f78       0x44 contiki-srf06-cc26xx.a(packetbuf.o)
                0x00014f78                packetbuf_attr_copyto
 .text.packetbuf_attr_copyfrom
                0x00014fbc       0x44 contiki-srf06-cc26xx.a(packetbuf.o)
                0x00014fbc                packetbuf_attr_copyfrom
 .text.packetbuf_set_attr
                0x00015000       0x10 contiki-srf06-cc26xx.a(packetbuf.o)
                0x00015000                packetbuf_set_attr
 .text.packetbuf_attr
                0x00015010        0xc contiki-srf06-cc26xx.a(packetbuf.o)
                0x00015010                packetbuf_attr
 .text.packetbuf_set_addr
                0x0001501c       0x18 contiki-srf06-cc26xx.a(packetbuf.o)
                0x0001501c                packetbuf_set_addr
 .text.packetbuf_addr
                0x00015034       0x10 contiki-srf06-cc26xx.a(packetbuf.o)
                0x00015034                packetbuf_addr
 .text.packetbuf_holds_broadcast
                0x00015044       0x10 contiki-srf06-cc26xx.a(packetbuf.o)
                0x00015044                packetbuf_holds_broadcast
 .text.queuebuf_init
                0x00015054       0x1c contiki-srf06-cc26xx.a(queuebuf.o)
                0x00015054                queuebuf_init
 .text.queuebuf_numfree
                0x00015070        0xc contiki-srf06-cc26xx.a(queuebuf.o)
                0x00015070                queuebuf_numfree
 .text.queuebuf_new_from_packetbuf
                0x0001507c       0x48 contiki-srf06-cc26xx.a(queuebuf.o)
                0x0001507c                queuebuf_new_from_packetbuf
 .text.queuebuf_update_attr_from_packetbuf
                0x000150c4        0xc contiki-srf06-cc26xx.a(queuebuf.o)
                0x000150c4                queuebuf_update_attr_from_packetbuf
 .text.queuebuf_update_from_packetbuf
                0x000150d0       0x1c contiki-srf06-cc26xx.a(queuebuf.o)
                0x000150d0                queuebuf_update_from_packetbuf
 .text.queuebuf_free
                0x000150ec       0x2c contiki-srf06-cc26xx.a(queuebuf.o)
                0x000150ec                queuebuf_free
 .text.queuebuf_to_packetbuf
                0x00015118       0x30 contiki-srf06-cc26xx.a(queuebuf.o)
                0x00015118                queuebuf_to_packetbuf
 .text.queuebuf_attr
                0x00015148        0xc contiki-srf06-cc26xx.a(queuebuf.o)
                0x00015148                queuebuf_attr
 .text.input_packet
                0x00015154        0xc contiki-srf06-cc26xx.a(csma.o)
 .text.on       0x00015160        0xc contiki-srf06-cc26xx.a(csma.o)
 .text.off      0x0001516c        0xc contiki-srf06-cc26xx.a(csma.o)
 .text.channel_check_interval
                0x00015178       0x10 contiki-srf06-cc26xx.a(csma.o)
 .text.transmit_packet_list
                0x00015188       0x34 contiki-srf06-cc26xx.a(csma.o)
 .text.free_packet
                0x000151bc       0x98 contiki-srf06-cc26xx.a(csma.o)
 .text.packet_sent
                0x00015254       0xfc contiki-srf06-cc26xx.a(csma.o)
 .text.send_packet
                0x00015350      0x164 contiki-srf06-cc26xx.a(csma.o)
 .text.init     0x000154b4       0x24 contiki-srf06-cc26xx.a(csma.o)
 .text.parse    0x000154d8       0xa0 contiki-srf06-cc26xx.a(framer-802154.o)
 .text.create_frame.isra.0
                0x00015578      0x13c contiki-srf06-cc26xx.a(framer-802154.o)
 .text.create   0x000156b4        0x8 contiki-srf06-cc26xx.a(framer-802154.o)
 .text.hdr_length
                0x000156bc        0x8 contiki-srf06-cc26xx.a(framer-802154.o)
 .text.mac_call_sent_callback
                0x000156c4       0x18 contiki-srf06-cc26xx.a(mac.o)
                0x000156c4                mac_call_sent_callback
 .text.duty_cycle
                0x000156dc        0x4 contiki-srf06-cc26xx.a(contikimac.o)
 .text.init     0x000156e0       0x40 contiki-srf06-cc26xx.a(contikimac.o)
 .text.on.part.0
                0x00015720       0x14 contiki-srf06-cc26xx.a(contikimac.o)
 .text.off      0x00015734       0x38 contiki-srf06-cc26xx.a(contikimac.o)
 .text.recv_burst_off
                0x0001576c       0x14 contiki-srf06-cc26xx.a(contikimac.o)
 .text.powercycle_turn_radio_off.part.2
                0x00015780       0x10 contiki-srf06-cc26xx.a(contikimac.o)
 .text.turn_off
                0x00015790       0x44 contiki-srf06-cc26xx.a(contikimac.o)
 .text.turn_on  0x000157d4       0x44 contiki-srf06-cc26xx.a(contikimac.o)
 .text.schedule_powercycle_fixed.part.5
                0x00015818       0x2c contiki-srf06-cc26xx.a(contikimac.o)
 .text.input_packet
                0x00015844       0xc4 contiki-srf06-cc26xx.a(contikimac.o)
 .text.send_packet.isra.8
                0x00015908      0x23c contiki-srf06-cc26xx.a(contikimac.o)
 .text.qsend_list
                0x00015b44       0xe0 contiki-srf06-cc26xx.a(contikimac.o)
 .text.qsend_packet
                0x00015c24       0x24 contiki-srf06-cc26xx.a(contikimac.o)
 .text.powercycle_wrapper
                0x00015c48      0x264 contiki-srf06-cc26xx.a(contikimac.o)
 .text.init     0x00015eac        0x4 contiki-srf06-cc26xx.a(nullsec.o)
 .text.input    0x00015eb0        0xc contiki-srf06-cc26xx.a(nullsec.o)
 .text.send     0x00015ebc       0x20 contiki-srf06-cc26xx.a(nullsec.o)
 .text.coap_set_option_header
                0x00015edc       0x8c contiki-srf06-cc26xx.a(er-coap.o)
 .text.coap_serialize_int_option
                0x00015f68       0x68 contiki-srf06-cc26xx.a(er-coap.o)
 .text.coap_merge_multi_option
                0x00015fd0       0x34 contiki-srf06-cc26xx.a(er-coap.o)
 .text.coap_get_variable
                0x00016004       0x78 contiki-srf06-cc26xx.a(er-coap.o)
 .text.coap_serialize_array_option.part.0
                0x0001607c       0x20 contiki-srf06-cc26xx.a(er-coap.o)
 .text.coap_serialize_array_option
                0x0001609c       0x94 contiki-srf06-cc26xx.a(er-coap.o)
 .text.coap_init_connection
                0x00016130       0x28 contiki-srf06-cc26xx.a(er-coap.o)
                0x00016130                coap_init_connection
 .text.coap_get_mid
                0x00016158       0x10 contiki-srf06-cc26xx.a(er-coap.o)
                0x00016158                coap_get_mid
 .text.coap_init_message
                0x00016168       0x1c contiki-srf06-cc26xx.a(er-coap.o)
                0x00016168                coap_init_message
 .text.coap_serialize_message
                0x00016184      0x31c contiki-srf06-cc26xx.a(er-coap.o)
                0x00016184                coap_serialize_message
 .text.coap_send_message
                0x000164a0       0x40 contiki-srf06-cc26xx.a(er-coap.o)
                0x000164a0                coap_send_message
 .text.coap_parse_message
                0x000164e0      0x44c contiki-srf06-cc26xx.a(er-coap.o)
                0x000164e0                coap_parse_message
 .text.coap_get_query_variable
                0x0001692c       0x24 contiki-srf06-cc26xx.a(er-coap.o)
                0x0001692c                coap_get_query_variable
 .text.coap_get_post_variable
                0x00016950       0x20 contiki-srf06-cc26xx.a(er-coap.o)
                0x00016950                coap_get_post_variable
 .text.coap_set_status_code
                0x00016970        0xc contiki-srf06-cc26xx.a(er-coap.o)
                0x00016970                coap_set_status_code
 .text.coap_set_token
                0x0001697c       0x18 contiki-srf06-cc26xx.a(er-coap.o)
                0x0001697c                coap_set_token
 .text.coap_get_header_content_format
                0x00016994       0x18 contiki-srf06-cc26xx.a(er-coap.o)
                0x00016994                coap_get_header_content_format
 .text.coap_set_header_content_format
                0x000169ac       0x10 contiki-srf06-cc26xx.a(er-coap.o)
                0x000169ac                coap_set_header_content_format
 .text.coap_get_header_accept
                0x000169bc       0x1c contiki-srf06-cc26xx.a(er-coap.o)
                0x000169bc                coap_get_header_accept
 .text.coap_get_header_max_age
                0x000169d8       0x10 contiki-srf06-cc26xx.a(er-coap.o)
                0x000169d8                coap_get_header_max_age
 .text.coap_set_header_max_age
                0x000169e8       0x10 contiki-srf06-cc26xx.a(er-coap.o)
                0x000169e8                coap_set_header_max_age
 .text.coap_set_header_etag
                0x000169f8       0x24 contiki-srf06-cc26xx.a(er-coap.o)
                0x000169f8                coap_set_header_etag
 .text.coap_get_header_if_match
                0x00016a1c       0x1c contiki-srf06-cc26xx.a(er-coap.o)
                0x00016a1c                coap_get_header_if_match
 .text.coap_get_header_if_none_match
                0x00016a38        0x8 contiki-srf06-cc26xx.a(er-coap.o)
                0x00016a38                coap_get_header_if_none_match
 .text.coap_get_header_uri_host
                0x00016a40       0x18 contiki-srf06-cc26xx.a(er-coap.o)
                0x00016a40                coap_get_header_uri_host
 .text.coap_get_header_uri_path
                0x00016a58       0x18 contiki-srf06-cc26xx.a(er-coap.o)
                0x00016a58                coap_get_header_uri_path
 .text.coap_set_header_uri_path
                0x00016a70       0x28 contiki-srf06-cc26xx.a(er-coap.o)
                0x00016a70                coap_set_header_uri_path
 .text.coap_get_header_uri_query
                0x00016a98       0x18 contiki-srf06-cc26xx.a(er-coap.o)
                0x00016a98                coap_get_header_uri_query
 .text.coap_set_header_location_path
                0x00016ab0       0x60 contiki-srf06-cc26xx.a(er-coap.o)
                0x00016ab0                coap_set_header_location_path
 .text.coap_set_header_observe
                0x00016b10       0x10 contiki-srf06-cc26xx.a(er-coap.o)
                0x00016b10                coap_set_header_observe
 .text.coap_get_header_block2
                0x00016b20       0x3c contiki-srf06-cc26xx.a(er-coap.o)
                0x00016b20                coap_get_header_block2
 .text.coap_set_header_block2
                0x00016b5c       0x38 contiki-srf06-cc26xx.a(er-coap.o)
                0x00016b5c                coap_set_header_block2
 .text.coap_get_header_size2
                0x00016b94       0x1c contiki-srf06-cc26xx.a(er-coap.o)
                0x00016b94                coap_get_header_size2
 .text.coap_set_header_size2
                0x00016bb0       0x10 contiki-srf06-cc26xx.a(er-coap.o)
                0x00016bb0                coap_set_header_size2
 .text.coap_get_payload
                0x00016bc0       0x14 contiki-srf06-cc26xx.a(er-coap.o)
                0x00016bc0                coap_get_payload
 .text.coap_set_payload
                0x00016bd4       0x14 contiki-srf06-cc26xx.a(er-coap.o)
                0x00016bd4                coap_set_payload
 .text.sensor_common_read_reg
                0x00016be8       0x1c contiki-srf06-cc26xx.a(sensor-common.o)
                0x00016be8                sensor_common_read_reg
 .text.sensor_common_write_reg
                0x00016c04       0x38 contiki-srf06-cc26xx.a(sensor-common.o)
                0x00016c04                sensor_common_write_reg
 .text.sensor_common_set_error_data
                0x00016c3c       0x10 contiki-srf06-cc26xx.a(sensor-common.o)
                0x00016c3c                sensor_common_set_error_data
 .text.process_thread_rf_core_process
                0x00016c4c       0x58 contiki-srf06-cc26xx.a(rf-core.o)
 .text.rf_core_is_accessible
                0x00016ca4       0x10 contiki-srf06-cc26xx.a(rf-core.o)
                0x00016ca4                rf_core_is_accessible
 .text.rf_core_send_cmd
                0x00016cb4       0x94 contiki-srf06-cc26xx.a(rf-core.o)
                0x00016cb4                rf_core_send_cmd
 .text.rf_core_wait_cmd_done
                0x00016d48       0x30 contiki-srf06-cc26xx.a(rf-core.o)
                0x00016d48                rf_core_wait_cmd_done
 .text.rf_core_power_up
                0x00016d78       0xb4 contiki-srf06-cc26xx.a(rf-core.o)
                0x00016d78                rf_core_power_up
 .text.rf_core_power_down
                0x00016e2c       0xe8 contiki-srf06-cc26xx.a(rf-core.o)
                0x00016e2c                rf_core_power_down
 .text.rf_core_set_modesel
                0x00016f14       0x68 contiki-srf06-cc26xx.a(rf-core.o)
                0x00016f14                rf_core_set_modesel
 .text.rf_core_boot
                0x00016f7c       0x30 contiki-srf06-cc26xx.a(rf-core.o)
                0x00016f7c                rf_core_boot
 .text.rf_core_setup_interrupts
                0x00016fac       0x6c contiki-srf06-cc26xx.a(rf-core.o)
                0x00016fac                rf_core_setup_interrupts
 .text.rf_core_cmd_done_en
                0x00017018       0x28 contiki-srf06-cc26xx.a(rf-core.o)
                0x00017018                rf_core_cmd_done_en
 .text.rf_core_cmd_done_dis
                0x00017040       0x10 contiki-srf06-cc26xx.a(rf-core.o)
                0x00017040                rf_core_cmd_done_dis
 .text.rf_core_get_last_radio_op
                0x00017050        0xc contiki-srf06-cc26xx.a(rf-core.o)
                0x00017050                rf_core_get_last_radio_op
 .text.rf_core_init_radio_op
                0x0001705c       0x1c contiki-srf06-cc26xx.a(rf-core.o)
                0x0001705c                rf_core_init_radio_op
 .text.rf_core_primary_mode_register
                0x00017078        0xc contiki-srf06-cc26xx.a(rf-core.o)
                0x00017078                rf_core_primary_mode_register
 .text.rf_core_primary_mode_abort
                0x00017084       0x14 contiki-srf06-cc26xx.a(rf-core.o)
                0x00017084                rf_core_primary_mode_abort
 .text.rf_core_primary_mode_restore
                0x00017098       0x14 contiki-srf06-cc26xx.a(rf-core.o)
                0x00017098                rf_core_primary_mode_restore
 .text.RFCCPE1IntHandler
                0x000170ac       0x28 contiki-srf06-cc26xx.a(rf-core.o)
                0x000170ac                RFCCPE1IntHandler
 .text.RFCCPE0IntHandler
                0x000170d4       0x5c contiki-srf06-cc26xx.a(rf-core.o)
                0x000170d4                RFCCPE0IntHandler
 .text.stimer_set
                0x00017130       0x10 contiki-srf06-cc26xx.a(stimer.o)
                0x00017130                stimer_set
 .text.stimer_expired
                0x00017140       0x20 contiki-srf06-cc26xx.a(stimer.o)
                0x00017140                stimer_expired
 .text.frame802154_get_pan_id
                0x00017160        0xc contiki-srf06-cc26xx.a(frame802154.o)
                0x00017160                frame802154_get_pan_id
 .text.frame802154_has_panid
                0x0001716c       0x50 contiki-srf06-cc26xx.a(frame802154.o)
                0x0001716c                frame802154_has_panid
 .text.field_len
                0x000171bc       0x88 contiki-srf06-cc26xx.a(frame802154.o)
 .text.frame802154_is_broadcast_addr
                0x00017244       0x20 contiki-srf06-cc26xx.a(frame802154.o)
                0x00017244                frame802154_is_broadcast_addr
 .text.frame802154_hdrlen
                0x00017264       0x34 contiki-srf06-cc26xx.a(frame802154.o)
                0x00017264                frame802154_hdrlen
 .text.frame802154_create
                0x00017298      0x124 contiki-srf06-cc26xx.a(frame802154.o)
                0x00017298                frame802154_create
 .text.frame802154_parse
                0x000173bc      0x17c contiki-srf06-cc26xx.a(frame802154.o)
                0x000173bc                frame802154_parse
 .text.mac_sequence_is_duplicate
                0x00017538       0x3c contiki-srf06-cc26xx.a(mac-sequence.o)
                0x00017538                mac_sequence_is_duplicate
 .text.mac_sequence_register_seqno
                0x00017574       0x70 contiki-srf06-cc26xx.a(mac-sequence.o)
                0x00017574                mac_sequence_register_seqno
 .text.exp2     0x000175e4       0x10 /home/paul/gcc-arm-none-eabi-5_2-2015q4/bin/../lib/gcc/arm-none-eabi/5.2.1/../../../../arm-none-eabi/lib/armv7-m/libm.a(lib_a-w_exp2.o)
                0x000175e4                exp2
 .text.pow      0x000175f4      0x2fc /home/paul/gcc-arm-none-eabi-5_2-2015q4/bin/../lib/gcc/arm-none-eabi/5.2.1/../../../../arm-none-eabi/lib/armv7-m/libm.a(lib_a-w_pow.o)
                0x000175f4                pow
 .text.__ieee754_sqrt
                0x000178f0      0x188 /home/paul/gcc-arm-none-eabi-5_2-2015q4/bin/../lib/gcc/arm-none-eabi/5.2.1/../../../../arm-none-eabi/lib/armv7-m/libm.a(lib_a-e_sqrt.o)
                0x000178f0                __ieee754_sqrt
 .text.fabs     0x00017a78        0x8 /home/paul/gcc-arm-none-eabi-5_2-2015q4/bin/../lib/gcc/arm-none-eabi/5.2.1/../../../../arm-none-eabi/lib/armv7-m/libm.a(lib_a-s_fabs.o)
                0x00017a78                fabs
 .text.finite   0x00017a80        0xc /home/paul/gcc-arm-none-eabi-5_2-2015q4/bin/../lib/gcc/arm-none-eabi/5.2.1/../../../../arm-none-eabi/lib/armv7-m/libm.a(lib_a-s_finite.o)
                0x00017a80                finite
 .text.__fpclassifyd
                0x00017a8c       0x54 /home/paul/gcc-arm-none-eabi-5_2-2015q4/bin/../lib/gcc/arm-none-eabi/5.2.1/../../../../arm-none-eabi/lib/armv7-m/libm.a(lib_a-s_fpclassify.o)
                0x00017a8c                __fpclassifyd
 .text.matherr  0x00017ae0        0x4 /home/paul/gcc-arm-none-eabi-5_2-2015q4/bin/../lib/gcc/arm-none-eabi/5.2.1/../../../../arm-none-eabi/lib/armv7-m/libm.a(lib_a-s_matherr.o)
                0x00017ae0                matherr
 .text.nan      0x00017ae4        0xc /home/paul/gcc-arm-none-eabi-5_2-2015q4/bin/../lib/gcc/arm-none-eabi/5.2.1/../../../../arm-none-eabi/lib/armv7-m/libm.a(lib_a-s_nan.o)
                0x00017ae4                nan
 .text.rint     0x00017af0      0x120 /home/paul/gcc-arm-none-eabi-5_2-2015q4/bin/../lib/gcc/arm-none-eabi/5.2.1/../../../../arm-none-eabi/lib/armv7-m/libm.a(lib_a-s_rint.o)
                0x00017af0                rint
 .text.copysign
                0x00017c10       0x10 /home/paul/gcc-arm-none-eabi-5_2-2015q4/bin/../lib/gcc/arm-none-eabi/5.2.1/../../../../arm-none-eabi/lib/armv7-m/libm.a(lib_a-s_copysign.o)
                0x00017c10                copysign
 .text          0x00017c20      0x370 /home/paul/gcc-arm-none-eabi-5_2-2015q4/bin/../lib/gcc/arm-none-eabi/5.2.1/armv7-m/libgcc.a(_arm_addsubdf3.o)
                0x00017c20                __aeabi_drsub
                0x00017c28                __aeabi_dsub
                0x00017c28                __subdf3
                0x00017c2c                __adddf3
                0x00017c2c                __aeabi_dadd
                0x00017ea4                __aeabi_ui2d
                0x00017ea4                __floatunsidf
                0x00017ec4                __floatsidf
                0x00017ec4                __aeabi_i2d
                0x00017ee8                __extendsfdf2
                0x00017ee8                __aeabi_f2d
                0x00017f24                __aeabi_ul2d
                0x00017f24                __floatundidf
                0x00017f34                __floatdidf
                0x00017f34                __aeabi_l2d
 .text          0x00017f90      0x424 /home/paul/gcc-arm-none-eabi-5_2-2015q4/bin/../lib/gcc/arm-none-eabi/5.2.1/armv7-m/libgcc.a(_arm_muldivdf3.o)
                0x00017f90                __aeabi_dmul
                0x00017f90                __muldf3
                0x000181e4                __aeabi_ddiv
                0x000181e4                __divdf3
 .text          0x000183b4      0x110 /home/paul/gcc-arm-none-eabi-5_2-2015q4/bin/../lib/gcc/arm-none-eabi/5.2.1/armv7-m/libgcc.a(_arm_cmpdf2.o)
                0x000183b4                __gtdf2
                0x000183b4                __gedf2
                0x000183bc                __ltdf2
                0x000183bc                __ledf2
                0x000183c4                __cmpdf2
                0x000183c4                __eqdf2
                0x000183c4                __nedf2
                0x00018440                __aeabi_cdrcmple
                0x00018450                __aeabi_cdcmple
                0x00018450                __aeabi_cdcmpeq
                0x00018460                __aeabi_dcmpeq
                0x00018474                __aeabi_dcmplt
                0x00018488                __aeabi_dcmple
                0x0001849c                __aeabi_dcmpge
                0x000184b0                __aeabi_dcmpgt
 .text          0x000184c4       0xa0 /home/paul/gcc-arm-none-eabi-5_2-2015q4/bin/../lib/gcc/arm-none-eabi/5.2.1/armv7-m/libgcc.a(_arm_truncdfsf2.o)
                0x000184c4                __aeabi_d2f
                0x000184c4                __truncdfsf2
 .text          0x00018564      0x21c /home/paul/gcc-arm-none-eabi-5_2-2015q4/bin/../lib/gcc/arm-none-eabi/5.2.1/armv7-m/libgcc.a(_arm_addsubsf3.o)
                0x00018564                __aeabi_frsub
                0x0001856c                __subsf3
                0x0001856c                __aeabi_fsub
                0x00018570                __aeabi_fadd
                0x00018570                __addsf3
                0x000186d0                __aeabi_ui2f
                0x000186d0                __floatunsisf
                0x000186d8                __aeabi_i2f
                0x000186d8                __floatsisf
                0x000186f4                __floatundisf
                0x000186f4                __aeabi_ul2f
                0x00018704                __floatdisf
                0x00018704                __aeabi_l2f
 .text          0x00018780      0x2a0 /home/paul/gcc-arm-none-eabi-5_2-2015q4/bin/../lib/gcc/arm-none-eabi/5.2.1/armv7-m/libgcc.a(_arm_muldivsf3.o)
                0x00018780                __mulsf3
                0x00018780                __aeabi_fmul
                0x000188e8                __divsf3
                0x000188e8                __aeabi_fdiv
 .text          0x00018a20       0x4c /home/paul/gcc-arm-none-eabi-5_2-2015q4/bin/../lib/gcc/arm-none-eabi/5.2.1/armv7-m/libgcc.a(_arm_fixsfsi.o)
                0x00018a20                __fixsfsi
                0x00018a20                __aeabi_f2iz
 .text          0x00018a6c       0x30 /home/paul/gcc-arm-none-eabi-5_2-2015q4/bin/../lib/gcc/arm-none-eabi/5.2.1/armv7-m/libgcc.a(_aeabi_uldivmod.o)
                0x00018a6c                __aeabi_uldivmod
 .text          0x00018a9c      0x2ec /home/paul/gcc-arm-none-eabi-5_2-2015q4/bin/../lib/gcc/arm-none-eabi/5.2.1/armv7-m/libgcc.a(_udivmoddi4.o)
                0x00018a9c                __udivmoddi4
 .text          0x00018d88        0x4 /home/paul/gcc-arm-none-eabi-5_2-2015q4/bin/../lib/gcc/arm-none-eabi/5.2.1/armv7-m/libgcc.a(_dvmd_tls.o)
                0x00018d88                __aeabi_ldiv0
                0x00018d88                __aeabi_idiv0
 .text.atoi     0x00018d8c        0x8 /home/paul/gcc-arm-none-eabi-5_2-2015q4/bin/../lib/gcc/arm-none-eabi/5.2.1/../../../../arm-none-eabi/lib/armv7-m/libc.a(lib_a-atoi.o)
                0x00018d8c                atoi
 .text.__errno  0x00018d94        0xc /home/paul/gcc-arm-none-eabi-5_2-2015q4/bin/../lib/gcc/arm-none-eabi/5.2.1/../../../../arm-none-eabi/lib/armv7-m/libc.a(lib_a-errno.o)
                0x00018d94                __errno
 .text.memchr   0x00018da0       0x8c /home/paul/gcc-arm-none-eabi-5_2-2015q4/bin/../lib/gcc/arm-none-eabi/5.2.1/../../../../arm-none-eabi/lib/armv7-m/libc.a(lib_a-memchr-stub.o)
                0x00018da0                memchr
 .text.memcmp   0x00018e2c       0x64 /home/paul/gcc-arm-none-eabi-5_2-2015q4/bin/../lib/gcc/arm-none-eabi/5.2.1/../../../../arm-none-eabi/lib/armv7-m/libc.a(lib_a-memcmp.o)
                0x00018e2c                memcmp
 .text          0x00018e90       0xec /home/paul/gcc-arm-none-eabi-5_2-2015q4/bin/../lib/gcc/arm-none-eabi/5.2.1/../../../../arm-none-eabi/lib/armv7-m/libc.a(lib_a-memcpy.o)
                0x00018e90                memcpy
 .text.memmove  0x00018f7c       0xc8 /home/paul/gcc-arm-none-eabi-5_2-2015q4/bin/../lib/gcc/arm-none-eabi/5.2.1/../../../../arm-none-eabi/lib/armv7-m/libc.a(lib_a-memmove.o)
                0x00018f7c                memmove
 .text.memset   0x00019044       0x9c /home/paul/gcc-arm-none-eabi-5_2-2015q4/bin/../lib/gcc/arm-none-eabi/5.2.1/../../../../arm-none-eabi/lib/armv7-m/libc.a(lib_a-memset.o)
                0x00019044                memset
 .text.srand    0x000190e0       0x14 /home/paul/gcc-arm-none-eabi-5_2-2015q4/bin/../lib/gcc/arm-none-eabi/5.2.1/../../../../arm-none-eabi/lib/armv7-m/libc.a(lib_a-rand.o)
                0x000190e0                srand
 .text.rand     0x000190f4       0x40 /home/paul/gcc-arm-none-eabi-5_2-2015q4/bin/../lib/gcc/arm-none-eabi/5.2.1/../../../../arm-none-eabi/lib/armv7-m/libc.a(lib_a-rand.o)
                0x000190f4                rand
 .text.strchr   0x00019134       0xd0 /home/paul/gcc-arm-none-eabi-5_2-2015q4/bin/../lib/gcc/arm-none-eabi/5.2.1/../../../../arm-none-eabi/lib/armv7-m/libc.a(lib_a-strchr.o)
                0x00019134                strchr
 .text.strlen   0x00019204       0x5c /home/paul/gcc-arm-none-eabi-5_2-2015q4/bin/../lib/gcc/arm-none-eabi/5.2.1/../../../../arm-none-eabi/lib/armv7-m/libc.a(lib_a-strlen-stub.o)
                0x00019204                strlen
 .text.strncasecmp
                0x00019260       0x54 /home/paul/gcc-arm-none-eabi-5_2-2015q4/bin/../lib/gcc/arm-none-eabi/5.2.1/../../../../arm-none-eabi/lib/armv7-m/libc.a(lib_a-strncasecmp.o)
                0x00019260                strncasecmp
 .text.strncmp  0x000192b4       0x9c /home/paul/gcc-arm-none-eabi-5_2-2015q4/bin/../lib/gcc/arm-none-eabi/5.2.1/../../../../arm-none-eabi/lib/armv7-m/libc.a(lib_a-strncmp.o)
                0x000192b4                strncmp
 .text.strncpy  0x00019350       0x68 /home/paul/gcc-arm-none-eabi-5_2-2015q4/bin/../lib/gcc/arm-none-eabi/5.2.1/../../../../arm-none-eabi/lib/armv7-m/libc.a(lib_a-strncpy.o)
                0x00019350                strncpy
 .text._strtol_r
                0x000193b8      0x128 /home/paul/gcc-arm-none-eabi-5_2-2015q4/bin/../lib/gcc/arm-none-eabi/5.2.1/../../../../arm-none-eabi/lib/armv7-m/libc.a(lib_a-strtol.o)
                0x000193b8                _strtol_r
 .text.strtol   0x000194e0       0x18 /home/paul/gcc-arm-none-eabi-5_2-2015q4/bin/../lib/gcc/arm-none-eabi/5.2.1/../../../../arm-none-eabi/lib/armv7-m/libc.a(lib_a-strtol.o)
                0x000194e0                strtol
 *(SORT(.rodata*))
 .rodata.TWO52  0x000194f8       0x10 /home/paul/gcc-arm-none-eabi-5_2-2015q4/bin/../lib/gcc/arm-none-eabi/5.2.1/../../../../arm-none-eabi/lib/armv7-m/libm.a(lib_a-s_rint.o)
 .rodata.autostart_processes
                0x00019508        0x8 cc26xx-web-demo.co
                0x00019508                autostart_processes
 .rodata.str1.4
                0x00019510      0x304 cc26xx-web-demo.co
                                0x30c (size before relaxing)
 .rodata.str1.4
                0x00019814       0x50 obj_srf06-cc26xx/res-leds.o
                                 0x5c (size before relaxing)
 .rodata.str1.4
                0x00019864       0x3d obj_srf06-cc26xx/res-toggle-leds.o
 *fill*         0x000198a1        0x3 00000000
 .rodata.str1.4
                0x000198a4      0x15b obj_srf06-cc26xx/res-device.o
 *fill*         0x000199ff        0x1 00000000
 .rodata.str1.4
                0x00019a00      0x20c obj_srf06-cc26xx/res-sensors.o
                                0x210 (size before relaxing)
 .rodata.str1.4
                0x00019c0c       0xaa obj_srf06-cc26xx/res-ble-advd.o
                                 0xba (size before relaxing)
 *fill*         0x00019cb6        0x2 00000000
 .rodata.str1.4
                0x00019cb8       0x99 obj_srf06-cc26xx/res-net.o
                                 0xa1 (size before relaxing)
 *fill*         0x00019d51        0x3 00000000
 .rodata.str1.4
                0x00019d54       0x2b obj_srf06-cc26xx/cetic-6lbr-client.o
                                 0x33 (size before relaxing)
 *fill*         0x00019d7f        0x1 00000000
 .rodata.str1.4
                0x00019d80      0x1bb obj_srf06-cc26xx/coap-server.o
 *fill*         0x00019f3b        0x1 00000000
 .rodata.str1.4
                0x00019f3c       0x51 obj_srf06-cc26xx/net-uart.o
                                 0x55 (size before relaxing)
 *fill*         0x00019f8d        0x3 00000000
 .rodata.str1.4
                0x00019f90      0x2c7 obj_srf06-cc26xx/mqtt-client.o
                                0x2e7 (size before relaxing)
 *fill*         0x0001a257        0x1 00000000
 .rodata.http_body_start
                0x0001a258        0x7 obj_srf06-cc26xx/httpd-simple.o
 *fill*         0x0001a25f        0x1 00000000
 .rodata.config_div_right
                0x0001a260       0x14 obj_srf06-cc26xx/httpd-simple.o
 .rodata.http_post
                0x0001a274        0x6 obj_srf06-cc26xx/httpd-simple.o
 *fill*         0x0001a27a        0x2 00000000
 .rodata.config_div_left
                0x0001a27c       0x13 obj_srf06-cc26xx/httpd-simple.o
 *fill*         0x0001a28f        0x1 00000000
 .rodata.http_head_charset
                0x0001a290       0x17 obj_srf06-cc26xx/httpd-simple.o
 *fill*         0x0001a2a7        0x1 00000000
 .rodata.http_header_400
                0x0001a2a8       0x1b obj_srf06-cc26xx/httpd-simple.o
 *fill*         0x0001a2c3        0x1 00000000
 .rodata.http_header_404
                0x0001a2c4       0x19 obj_srf06-cc26xx/httpd-simple.o
 *fill*         0x0001a2dd        0x3 00000000
 .rodata.http_content_type_html
                0x0001a2e0        0xa obj_srf06-cc26xx/httpd-simple.o
 *fill*         0x0001a2ea        0x2 00000000
 .rodata.http_html_start
                0x0001a2ec        0xd obj_srf06-cc26xx/httpd-simple.o
 *fill*         0x0001a2f9        0x3 00000000
 .rodata.http_title_start
                0x0001a2fc        0x8 obj_srf06-cc26xx/httpd-simple.o
 .rodata.config_div_close
                0x0001a304        0x7 obj_srf06-cc26xx/httpd-simple.o
 *fill*         0x0001a30b        0x1 00000000
 .rodata.http_bottom
                0x0001a30c        0xf obj_srf06-cc26xx/httpd-simple.o
 *fill*         0x0001a31b        0x1 00000000
 .rodata.http_header_200
                0x0001a31c       0x12 obj_srf06-cc26xx/httpd-simple.o
 *fill*         0x0001a32e        0x2 00000000
 .rodata.http_header_503
                0x0001a330       0x23 obj_srf06-cc26xx/httpd-simple.o
 *fill*         0x0001a353        0x1 00000000
 .rodata.http_index_html
                0x0001a354        0xc obj_srf06-cc26xx/httpd-simple.o
 .rodata.http_head_end
                0x0001a360        0x8 obj_srf06-cc26xx/httpd-simple.o
 .rodata.http_title_end
                0x0001a368        0x9 obj_srf06-cc26xx/httpd-simple.o
 *fill*         0x0001a371        0x3 00000000
 .rodata.http_content_type_plain
                0x0001a374        0xb obj_srf06-cc26xx/httpd-simple.o
 *fill*         0x0001a37f        0x1 00000000
 .rodata.http_header_411
                0x0001a380       0x1f obj_srf06-cc26xx/httpd-simple.o
 *fill*         0x0001a39f        0x1 00000000
 .rodata.http_header_413
                0x0001a3a0       0x28 obj_srf06-cc26xx/httpd-simple.o
 .rodata.http_get
                0x0001a3c8        0x5 obj_srf06-cc26xx/httpd-simple.o
 *fill*         0x0001a3cd        0x3 00000000
 .rodata.http_doctype
                0x0001a3d0       0x10 obj_srf06-cc26xx/httpd-simple.o
 .rodata.str1.4
                0x0001a3e0      0x916 obj_srf06-cc26xx/httpd-simple.o
                                0x92e (size before relaxing)
 *fill*         0x0001acf6        0x2 00000000
 .rodata.http_header_302
                0x0001acf8       0x15 obj_srf06-cc26xx/httpd-simple.o
 *fill*         0x0001ad0d        0x3 00000000
 .rodata.coap_rest_implementation
                0x0001ad10      0x10c contiki-srf06-cc26xx.a(er-coap-engine.)
                0x0001ad10                coap_rest_implementation
 .rodata.str1.4
                0x0001ae1c       0x6c contiki-srf06-cc26xx.a(er-coap-engine.)
 .rodata.str1.4
                0x0001ae88       0x11 contiki-srf06-cc26xx.a(er-coap-observe)
 *fill*         0x0001ae99        0x3 00000000
 .rodata.str1.4
                0x0001ae9c        0x6 contiki-srf06-cc26xx.a(er-coap-res-wel)
                                 0x1a (size before relaxing)
 *fill*         0x0001aea2        0x2 00000000
 .rodata.str1.4
                0x0001aea4        0xc contiki-srf06-cc26xx.a(rest-engine.o)
 .rodata.str1.4
                0x0001aeb0       0x15 contiki-srf06-cc26xx.a(mqtt.o)
 *fill*         0x0001aec5        0x3 00000000
 .rodata.str1.4
                0x0001aec8       0x89 contiki-srf06-cc26xx.a(contiki-main.o)
                                 0xa1 (size before relaxing)
 *fill*         0x0001af51        0x3 00000000
 .rodata.str1.4
                0x0001af54        0x8 contiki-srf06-cc26xx.a(sensors.o)
 .rodata.str1.4
                0x0001af5c        0x7 contiki-srf06-cc26xx.a(bmp-280-sensor.)
 *fill*         0x0001af63        0x1 00000000
 .rodata.bmp_280_sensor
                0x0001af64       0x10 contiki-srf06-cc26xx.a(bmp-280-sensor.)
                0x0001af64                bmp_280_sensor
 .rodata.tmp_007_sensor
                0x0001af74       0x10 contiki-srf06-cc26xx.a(tmp-007-sensor.)
                0x0001af74                tmp_007_sensor
 .rodata.str1.4
                0x0001af84        0x7 contiki-srf06-cc26xx.a(tmp-007-sensor.)
 *fill*         0x0001af8b        0x1 00000000
 .rodata.str1.4
                0x0001af8c        0x8 contiki-srf06-cc26xx.a(opt-3001-sensor)
 .rodata.opt_3001_sensor
                0x0001af94       0x10 contiki-srf06-cc26xx.a(opt-3001-sensor)
                0x0001af94                opt_3001_sensor
 .rodata.hdc_1000_sensor
                0x0001afa4       0x10 contiki-srf06-cc26xx.a(hdc-1000-sensor)
                0x0001afa4                hdc_1000_sensor
 .rodata.str1.4
                0x0001afb4        0x8 contiki-srf06-cc26xx.a(hdc-1000-sensor)
 .rodata.mpu_9250_sensor
                0x0001afbc       0x10 contiki-srf06-cc26xx.a(mpu-9250-sensor)
                0x0001afbc                mpu_9250_sensor
 .rodata.str1.4
                0x0001afcc        0x8 contiki-srf06-cc26xx.a(mpu-9250-sensor)
 .rodata.str1.4
                0x0001afd4        0x7 contiki-srf06-cc26xx.a(button-sensor.o)
 *fill*         0x0001afdb        0x1 00000000
 .rodata.button_left_sensor
                0x0001afdc       0x10 contiki-srf06-cc26xx.a(button-sensor.o)
                0x0001afdc                button_left_sensor
 .rodata.button_right_sensor
                0x0001afec       0x10 contiki-srf06-cc26xx.a(button-sensor.o)
                0x0001afec                button_right_sensor
 .rodata.reed_relay_sensor
                0x0001affc       0x10 contiki-srf06-cc26xx.a(reed-relay.o)
                0x0001affc                reed_relay_sensor
 .rodata.str1.4
                0x0001b00c        0x5 contiki-srf06-cc26xx.a(reed-relay.o)
 *fill*         0x0001b011        0x3 00000000
 .rodata        0x0001b014        0x4 contiki-srf06-cc26xx.a(ext-flash.o)
 .rodata.str1.4
                0x0001b018       0x10 contiki-srf06-cc26xx.a(batmon-sensor.o)
 .rodata.batmon_sensor
                0x0001b028       0x10 contiki-srf06-cc26xx.a(batmon-sensor.o)
                0x0001b028                batmon_sensor
 .rodata.str1.4
                0x0001b038       0x26 contiki-srf06-cc26xx.a(rf-ble.o)
 *fill*         0x0001b05e        0x2 00000000
 .rodata.output_power
                0x0001b060       0x68 contiki-srf06-cc26xx.a(ieee-mode.o)
 .rodata.ieee_mode_driver
                0x0001b0c8       0x38 contiki-srf06-cc26xx.a(ieee-mode.o)
                0x0001b0c8                ieee_mode_driver
 .rodata.mode_ieee
                0x0001b100        0x8 contiki-srf06-cc26xx.a(ieee-mode.o)
 .rodata.buffer.4106
                0x0001b108       0x10 contiki-srf06-cc26xx.a(strformat.o)
 .rodata.buffer.4115
                0x0001b118       0x10 contiki-srf06-cc26xx.a(strformat.o)
 .rodata.str1.4
                0x0001b128       0x36 contiki-srf06-cc26xx.a(strformat.o)
                                 0x46 (size before relaxing)
 *fill*         0x0001b15e        0x2 00000000
 .rodata.str1.4
                0x0001b160        0xf contiki-srf06-cc26xx.a(ctimer.o)
 *fill*         0x0001b16f        0x1 00000000
 .rodata.str1.4
                0x0001b170        0xc contiki-srf06-cc26xx.a(etimer.o)
 .rodata.str1.4
                0x0001b17c        0xe contiki-srf06-cc26xx.a(serial-line.o)
 *fill*         0x0001b18a        0x2 00000000
 .rodata        0x0001b18c        0x2 contiki-srf06-cc26xx.a(sicslowpan.o)
 *fill*         0x0001b18e        0x2 00000000
 .rodata.ttl_values
                0x0001b190        0x4 contiki-srf06-cc26xx.a(sicslowpan.o)
 .rodata.unc_llconf
                0x0001b194        0x4 contiki-srf06-cc26xx.a(sicslowpan.o)
                0x0001b194                unc_llconf
 .rodata.llprefix
                0x0001b198        0x2 contiki-srf06-cc26xx.a(sicslowpan.o)
                0x0001b198                llprefix
 *fill*         0x0001b19a        0x2 00000000
 .rodata.sicslowpan_driver
                0x0001b19c        0xc contiki-srf06-cc26xx.a(sicslowpan.o)
                0x0001b19c                sicslowpan_driver
 .rodata.unc_mxconf
                0x0001b1a8        0x4 contiki-srf06-cc26xx.a(sicslowpan.o)
                0x0001b1a8                unc_mxconf
 .rodata.unc_ctxconf
                0x0001b1ac        0x4 contiki-srf06-cc26xx.a(sicslowpan.o)
                0x0001b1ac                unc_ctxconf
 .rodata.str1.4
                0x0001b1b0        0xb contiki-srf06-cc26xx.a(sicslowpan.o)
 *fill*         0x0001b1bb        0x1 00000000
 .rodata.str1.4
                0x0001b1bc        0xd contiki-srf06-cc26xx.a(tcpip.o)
 *fill*         0x0001b1c9        0x3 00000000
 .rodata.str1.4
                0x0001b1cc       0x9b contiki-srf06-cc26xx.a(tcp-socket.o)
 *fill*         0x0001b267        0x1 00000000
 .rodata.str1.4
                0x0001b268       0x33 contiki-srf06-cc26xx.a(uip-debug.o)
                                 0x41 (size before relaxing)
 *fill*         0x0001b29b        0x1 00000000
 .rodata.linkaddr_null
                0x0001b29c        0x8 contiki-srf06-cc26xx.a(linkaddr.o)
                0x0001b29c                linkaddr_null
 .rodata.csma_driver
                0x0001b2a4       0x1c contiki-srf06-cc26xx.a(csma.o)
                0x0001b2a4                csma_driver
 .rodata.str1.4
                0x0001b2c0        0x5 contiki-srf06-cc26xx.a(csma.o)
 *fill*         0x0001b2c5        0x3 00000000
 .rodata.framer_802154
                0x0001b2c8        0xc contiki-srf06-cc26xx.a(framer-802154.o)
                0x0001b2c8                framer_802154
 .rodata.str1.4
                0x0001b2d4        0xb contiki-srf06-cc26xx.a(contikimac.o)
 *fill*         0x0001b2df        0x1 00000000
 .rodata.contikimac_driver
                0x0001b2e0       0x20 contiki-srf06-cc26xx.a(contikimac.o)
                0x0001b2e0                contikimac_driver
 .rodata.str1.4
                0x0001b300        0x8 contiki-srf06-cc26xx.a(nullsec.o)
 .rodata.nullsec_driver
                0x0001b308       0x10 contiki-srf06-cc26xx.a(nullsec.o)
                0x0001b308                nullsec_driver
 .rodata.str1.4
                0x0001b318       0xb4 contiki-srf06-cc26xx.a(er-coap.o)
                                 0xb5 (size before relaxing)
 .rodata.str1.4
                0x0001b3cc       0x46 contiki-srf06-cc26xx.a(rf-core.o)
 *fill*         0x0001b412        0x2 00000000
 .rodata.str1.4
                0x0001b414        0x4 /home/paul/gcc-arm-none-eabi-5_2-2015q4/bin/../lib/gcc/arm-none-eabi/5.2.1/../../../../arm-none-eabi/lib/armv7-m/libm.a(lib_a-w_pow.o)
 .rodata.str1.4
                0x0001b418        0x1 /home/paul/gcc-arm-none-eabi-5_2-2015q4/bin/../lib/gcc/arm-none-eabi/5.2.1/../../../../arm-none-eabi/lib/armv7-m/libm.a(lib_a-e_pow.o)
 .rodata._ctype_
                0x0001b418      0x101 /home/paul/gcc-arm-none-eabi-5_2-2015q4/bin/../lib/gcc/arm-none-eabi/5.2.1/../../../../arm-none-eabi/lib/armv7-m/libc.a(lib_a-ctype_.o)
                0x0001b418                _ctype_
 .rodata.str1.4
                0x0001b519        0x2 /home/paul/gcc-arm-none-eabi-5_2-2015q4/bin/../lib/gcc/arm-none-eabi/5.2.1/../../../../arm-none-eabi/lib/armv7-m/libc.a(lib_a-impure.o)
                0x0001b51b                _etext = .

.glue_7         0x0001b51c        0x0
 .glue_7        0x0001b51c        0x0 linker stubs

.glue_7t        0x0001b51c        0x0
 .glue_7t       0x0001b51c        0x0 linker stubs

.vfp11_veneer   0x0001b51c        0x0
 .vfp11_veneer  0x0001b51c        0x0 linker stubs

.v4_bx          0x0001b51c        0x0
 .v4_bx         0x0001b51c        0x0 linker stubs

.iplt           0x0001b51c        0x0
 .iplt          0x0001b51c        0x0 obj_srf06-cc26xx/startup_gcc.o

.data           0x20000000      0xe95 load address 0x0001b519
                0x20000000                _data = .
 *(SORT(vtable))
 *(SORT(.data*))
 .data.impure_data
                0x20000000      0x428 /home/paul/gcc-arm-none-eabi-5_2-2015q4/bin/../lib/gcc/arm-none-eabi/5.2.1/../../../../arm-none-eabi/lib/armv7-m/libc.a(lib_a-impure.o)
 .data.mpu_acc_z_reading
                0x20000428       0x2c cc26xx-web-demo.co
                0x20000428                mpu_acc_z_reading
 .data.cc26xx_web_demo_process
                0x20000454       0x10 cc26xx-web-demo.co
                0x20000454                cc26xx_web_demo_process
 .data.opt_reading
                0x20000464       0x2c cc26xx-web-demo.co
                0x20000464                opt_reading
 .data.hdc_hum_reading
                0x20000490       0x2c cc26xx-web-demo.co
                0x20000490                hdc_hum_reading
 .data.batmon_volt_reading
                0x200004bc       0x2c cc26xx-web-demo.co
                0x200004bc                batmon_volt_reading
 .data.mpu_gyro_x_reading
                0x200004e8       0x2c cc26xx-web-demo.co
                0x200004e8                mpu_gyro_x_reading
 .data.sensor_handler
                0x20000514        0x8 cc26xx-web-demo.co
                0x20000514                sensor_handler
 .data.ping_interval_handler
                0x2000051c        0x8 cc26xx-web-demo.co
                0x2000051c                ping_interval_handler
 .data.mpu_gyro_y_reading
                0x20000524       0x2c cc26xx-web-demo.co
                0x20000524                mpu_gyro_y_reading
 .data.mpu_acc_y_reading
                0x20000550       0x2c cc26xx-web-demo.co
                0x20000550                mpu_acc_y_reading
 .data.defaults_handler
                0x2000057c        0x8 cc26xx-web-demo.co
                0x2000057c                defaults_handler
 .data.hdc_temp_reading
                0x20000584       0x2c cc26xx-web-demo.co
                0x20000584                hdc_temp_reading
 .data.tmp_obj_reading
                0x200005b0       0x2c cc26xx-web-demo.co
                0x200005b0                tmp_obj_reading
 .data.bmp_pres_reading
                0x200005dc       0x2c cc26xx-web-demo.co
                0x200005dc                bmp_pres_reading
 .data.mpu_acc_x_reading
                0x20000608       0x2c cc26xx-web-demo.co
                0x20000608                mpu_acc_x_reading
 .data.bmp_temp_reading
                0x20000634       0x2c cc26xx-web-demo.co
                0x20000634                bmp_temp_reading
 .data.mpu_gyro_z_reading
                0x20000660       0x2c cc26xx-web-demo.co
                0x20000660                mpu_gyro_z_reading
 .data.tmp_amb_reading
                0x2000068c       0x2c cc26xx-web-demo.co
                0x2000068c                tmp_amb_reading
 .data.batmon_temp_reading
                0x200006b8       0x2c cc26xx-web-demo.co
                0x200006b8                batmon_temp_reading
 .data.res_leds
                0x200006e4       0x24 obj_srf06-cc26xx/res-leds.o
                0x200006e4                res_leds
 .data.res_toggle_red
                0x20000708       0x24 obj_srf06-cc26xx/res-toggle-leds.o
                0x20000708                res_toggle_red
 .data.res_toggle_green
                0x2000072c       0x24 obj_srf06-cc26xx/res-toggle-leds.o
                0x2000072c                res_toggle_green
 .data.res_device_uptime
                0x20000750       0x24 obj_srf06-cc26xx/res-device.o
                0x20000750                res_device_uptime
 .data.res_device_cfg_reset
                0x20000774       0x24 obj_srf06-cc26xx/res-device.o
                0x20000774                res_device_cfg_reset
 .data.res_device_sw
                0x20000798       0x24 obj_srf06-cc26xx/res-device.o
                0x20000798                res_device_sw
 .data.res_device_hw
                0x200007bc       0x24 obj_srf06-cc26xx/res-device.o
                0x200007bc                res_device_hw
 .data.res_batmon_temp
                0x200007e0       0x24 obj_srf06-cc26xx/res-sensors.o
                0x200007e0                res_batmon_temp
 .data.res_bmp280_press
                0x20000804       0x24 obj_srf06-cc26xx/res-sensors.o
                0x20000804                res_bmp280_press
 .data.res_tmp007_obj
                0x20000828       0x24 obj_srf06-cc26xx/res-sensors.o
                0x20000828                res_tmp007_obj
 .data.res_batmon_volt
                0x2000084c       0x24 obj_srf06-cc26xx/res-sensors.o
                0x2000084c                res_batmon_volt
 .data.res_mpu_gyro_z
                0x20000870       0x24 obj_srf06-cc26xx/res-sensors.o
                0x20000870                res_mpu_gyro_z
 .data.res_mpu_acc_x
                0x20000894       0x24 obj_srf06-cc26xx/res-sensors.o
                0x20000894                res_mpu_acc_x
 .data.res_hdc1000_temp
                0x200008b8       0x24 obj_srf06-cc26xx/res-sensors.o
                0x200008b8                res_hdc1000_temp
 .data.res_mpu_acc_y
                0x200008dc       0x24 obj_srf06-cc26xx/res-sensors.o
                0x200008dc                res_mpu_acc_y
 .data.res_mpu_acc_z
                0x20000900       0x24 obj_srf06-cc26xx/res-sensors.o
                0x20000900                res_mpu_acc_z
 .data.res_mpu_gyro_x
                0x20000924       0x24 obj_srf06-cc26xx/res-sensors.o
                0x20000924                res_mpu_gyro_x
 .data.res_mpu_gyro_y
                0x20000948       0x24 obj_srf06-cc26xx/res-sensors.o
                0x20000948                res_mpu_gyro_y
 .data.res_hdc1000_hum
                0x2000096c       0x24 obj_srf06-cc26xx/res-sensors.o
                0x2000096c                res_hdc1000_hum
 .data.res_tmp007_amb
                0x20000990       0x24 obj_srf06-cc26xx/res-sensors.o
                0x20000990                res_tmp007_amb
 .data.res_opt3001_light
                0x200009b4       0x24 obj_srf06-cc26xx/res-sensors.o
                0x200009b4                res_opt3001_light
 .data.res_bmp280_temp
                0x200009d8       0x24 obj_srf06-cc26xx/res-sensors.o
                0x200009d8                res_bmp280_temp
 .data.forbidden_payload
                0x200009fc        0x4 obj_srf06-cc26xx/res-ble-advd.o
                0x200009fc                forbidden_payload
 .data.res_ble_advd
                0x20000a00       0x24 obj_srf06-cc26xx/res-ble-advd.o
                0x20000a00                res_ble_advd
 .data.res_parent_rssi
                0x20000a24       0x24 obj_srf06-cc26xx/res-net.o
                0x20000a24                res_parent_rssi
 .data.res_parent_ip
                0x20000a48       0x24 obj_srf06-cc26xx/res-net.o
                0x20000a48                res_parent_ip
 .data.cetic_6lbr_client_process
                0x20000a6c       0x10 obj_srf06-cc26xx/cetic-6lbr-client.o
                0x20000a6c                cetic_6lbr_client_process
 .data.coap_server_supported_msg
                0x20000a7c        0x4 obj_srf06-cc26xx/coap-server.o
                0x20000a7c                coap_server_supported_msg
 .data.coap_server_process
                0x20000a80       0x10 obj_srf06-cc26xx/coap-server.o
                0x20000a80                coap_server_process
 .data.coap_server_not_found_msg
                0x20000a90        0x4 obj_srf06-cc26xx/coap-server.o
                0x20000a90                coap_server_not_found_msg
 .data.net_uart_process
                0x20000a94       0x10 obj_srf06-cc26xx/net-uart.o
                0x20000a94                net_uart_process
 .data.remote_ipv6_handler
                0x20000aa4        0x8 obj_srf06-cc26xx/net-uart.o
                0x20000aa4                remote_ipv6_handler
 .data.on_off_handler
                0x20000aac        0x8 obj_srf06-cc26xx/net-uart.o
                0x20000aac                on_off_handler
 .data.remote_port_handler
                0x20000ab4        0x8 obj_srf06-cc26xx/net-uart.o
                0x20000ab4                remote_port_handler
 .data.org_id_handler
                0x20000abc        0x8 obj_srf06-cc26xx/mqtt-client.o
                0x20000abc                org_id_handler
 .data.type_id_handler
                0x20000ac4        0x8 obj_srf06-cc26xx/mqtt-client.o
                0x20000ac4                type_id_handler
 .data.cmd_type_handler
                0x20000acc        0x8 obj_srf06-cc26xx/mqtt-client.o
                0x20000acc                cmd_type_handler
 .data.mqtt_client_process
                0x20000ad4       0x10 obj_srf06-cc26xx/mqtt-client.o
                0x20000ad4                mqtt_client_process
 .data.port_handler
                0x20000ae4        0x8 obj_srf06-cc26xx/mqtt-client.o
                0x20000ae4                port_handler
 .data.interval_handler
                0x20000aec        0x8 obj_srf06-cc26xx/mqtt-client.o
                0x20000aec                interval_handler
 .data.event_type_id_handler
                0x20000af4        0x8 obj_srf06-cc26xx/mqtt-client.o
                0x20000af4                event_type_id_handler
 .data.auth_token_handler
                0x20000afc        0x8 obj_srf06-cc26xx/mqtt-client.o
                0x20000afc                auth_token_handler
 .data.reconnect_handler
                0x20000b04        0x8 obj_srf06-cc26xx/mqtt-client.o
                0x20000b04                reconnect_handler
 .data.ip_addr_handler
                0x20000b0c        0x8 obj_srf06-cc26xx/mqtt-client.o
                0x20000b0c                ip_addr_handler
 .data.http_header_con_close
                0x20000b14        0x8 obj_srf06-cc26xx/httpd-simple.o
 .data.httpd_simple_process
                0x20000b1c       0x10 obj_srf06-cc26xx/httpd-simple.o
                0x20000b1c                httpd_simple_process
 .data.http_net_cfg_page
                0x20000b2c       0x10 obj_srf06-cc26xx/httpd-simple.o
 .data.http_dev_cfg_page
                0x20000b3c       0x10 obj_srf06-cc26xx/httpd-simple.o
 .data.http_config_css
                0x20000b4c       0x1c obj_srf06-cc26xx/httpd-simple.o
 .data.http_header_srv_str
                0x20000b68        0xc obj_srf06-cc26xx/httpd-simple.o
 .data.conns    0x20000b74        0xc obj_srf06-cc26xx/httpd-simple.o
 .data.http_index_page
                0x20000b80       0x10 obj_srf06-cc26xx/httpd-simple.o
 .data.http_mqtt_cfg_page
                0x20000b90       0x10 obj_srf06-cc26xx/httpd-simple.o
 .data.coap_engine
                0x20000ba0       0x10 contiki-srf06-cc26xx.a(er-coap-engine.)
                0x20000ba0                coap_engine
 .data.transactions_memb
                0x20000bb0        0xc contiki-srf06-cc26xx.a(er-coap-transac)
 .data.observers_memb
                0x20000bbc        0xc contiki-srf06-cc26xx.a(er-coap-observe)
 .data.res_well_known_core
                0x20000bc8       0x24 contiki-srf06-cc26xx.a(er-coap-res-wel)
                0x20000bc8                res_well_known_core
 .data.rest_engine_process
                0x20000bec       0x10 contiki-srf06-cc26xx.a(rest-engine.o)
                0x20000bec                rest_engine_process
 .data.mqtt_process
                0x20000bfc       0x10 contiki-srf06-cc26xx.a(mqtt.o)
                0x20000bfc                mqtt_process
 .data.sensors_process
                0x20000c0c       0x10 contiki-srf06-cc26xx.a(sensors.o)
                0x20000c0c                sensors_process
 .data.sensors  0x20000c1c       0x24 contiki-srf06-cc26xx.a(sensortag-senso)
                0x20000c1c                sensors
 .data.buzzer_module
                0x20000c40       0x14 contiki-srf06-cc26xx.a(buzzer.o)
 .data.sensortag_module
                0x20000c54       0x14 contiki-srf06-cc26xx.a(board.o)
 .data.uart_module
                0x20000c68       0x14 contiki-srf06-cc26xx.a(cc26xx-uart.o)
 .data.rf_ble_beacon_process
                0x20000c7c       0x10 contiki-srf06-cc26xx.a(rf-ble.o)
                0x20000c7c                rf_ble_beacon_process
 .data.beacond_config
                0x20000c8c       0x24 contiki-srf06-cc26xx.a(rf-ble.o)
 .data.ble_overrides
                0x20000cb0       0x1c contiki-srf06-cc26xx.a(rf-ble.o)
 .data.cc26xx_rf_lpm_module
                0x20000ccc       0x14 contiki-srf06-cc26xx.a(ieee-mode.o)
 .data.tx_power_current
                0x20000ce0        0x4 contiki-srf06-cc26xx.a(ieee-mode.o)
                0x20000ce0                tx_power_current
 .data.ieee_overrides
                0x20000ce4       0x2c contiki-srf06-cc26xx.a(ieee-mode.o)
 .data.ctxt     0x20000d10        0x8 contiki-srf06-cc26xx.a(dbg-printf.o)
 .data.ctimer_process
                0x20000d18       0x10 contiki-srf06-cc26xx.a(ctimer.o)
                0x20000d18                ctimer_process
 .data.etimer_process
                0x20000d28       0x10 contiki-srf06-cc26xx.a(etimer.o)
                0x20000d28                etimer_process
 .data.serial_line_process
                0x20000d38       0x10 contiki-srf06-cc26xx.a(serial-line.o)
                0x20000d38                serial_line_process
 .data.ds6_neighbors
                0x20000d48        0x4 contiki-srf06-cc26xx.a(uip-ds6-nbr.o)
                0x20000d48                ds6_neighbors
 .data.ds6_neighbors_struct
                0x20000d4c       0x10 contiki-srf06-cc26xx.a(uip-ds6-nbr.o)
 .data.defaultroutermemb
                0x20000d5c        0xc contiki-srf06-cc26xx.a(uip-ds6-route.o)
 .data.nbr_routes_struct
                0x20000d68       0x10 contiki-srf06-cc26xx.a(uip-ds6-route.o)
 .data.nbr_routes
                0x20000d78        0x4 contiki-srf06-cc26xx.a(uip-ds6-route.o)
                0x20000d78                nbr_routes
 .data.routememb
                0x20000d7c        0xc contiki-srf06-cc26xx.a(uip-ds6-route.o)
 .data.neighborroutememb
                0x20000d88        0xc contiki-srf06-cc26xx.a(uip-ds6-route.o)
 .data.echo_request_handler
                0x20000d94        0xc contiki-srf06-cc26xx.a(uip-icmp6.o)
 .data.echo_reply_handler
                0x20000da0        0xc contiki-srf06-cc26xx.a(uip-icmp6.o)
 .data.tcpip_process
                0x20000dac       0x10 contiki-srf06-cc26xx.a(tcpip.o)
                0x20000dac                tcpip_process
 .data.tcp_socket_process
                0x20000dbc       0x10 contiki-srf06-cc26xx.a(tcp-socket.o)
                0x20000dbc                tcp_socket_process
 .data.rpl_parents
                0x20000dcc        0x4 contiki-srf06-cc26xx.a(rpl-dag.o)
                0x20000dcc                rpl_parents
 .data.rpl_parents_struct
                0x20000dd0       0x10 contiki-srf06-cc26xx.a(rpl-dag.o)
 .data.dao_ack_handler
                0x20000de0        0xc contiki-srf06-cc26xx.a(rpl-icmp6.o)
 .data.dis_handler
                0x20000dec        0xc contiki-srf06-cc26xx.a(rpl-icmp6.o)
 .data.dao_handler
                0x20000df8        0xc contiki-srf06-cc26xx.a(rpl-icmp6.o)
 .data.dio_handler
                0x20000e04        0xc contiki-srf06-cc26xx.a(rpl-icmp6.o)
 .data.rpl_mrhof
                0x20000e10       0x1c contiki-srf06-cc26xx.a(rpl-mrhof.o)
                0x20000e10                rpl_mrhof
 .data.neighbor_addr_mem
                0x20000e2c        0xc contiki-srf06-cc26xx.a(nbr-table.o)
 .data.bufmem   0x20000e38        0xc contiki-srf06-cc26xx.a(queuebuf.o)
 .data.buframmem
                0x20000e44        0xc contiki-srf06-cc26xx.a(queuebuf.o)
 .data.metadata_memb
                0x20000e50        0xc contiki-srf06-cc26xx.a(csma.o)
 .data.packet_memb
                0x20000e5c        0xc contiki-srf06-cc26xx.a(csma.o)
 .data.neighbor_memb
                0x20000e68        0xc contiki-srf06-cc26xx.a(csma.o)
 .data.coap_error_message
                0x20000e74        0x4 contiki-srf06-cc26xx.a(er-coap.o)
                0x20000e74                coap_error_message
 .data.rf_core_process
                0x20000e78       0x10 contiki-srf06-cc26xx.a(rf-core.o)
                0x20000e78                rf_core_process
 .data.__ctype_ptr__
                0x20000e88        0x4 /home/paul/gcc-arm-none-eabi-5_2-2015q4/bin/../lib/gcc/arm-none-eabi/5.2.1/../../../../arm-none-eabi/lib/armv7-m/libc.a(lib_a-ctype_.o)
                0x20000e88                __ctype_ptr__
 .data._impure_ptr
                0x20000e8c        0x4 /home/paul/gcc-arm-none-eabi-5_2-2015q4/bin/../lib/gcc/arm-none-eabi/5.2.1/../../../../arm-none-eabi/lib/armv7-m/libc.a(lib_a-impure.o)
                0x20000e8c                _impure_ptr
 .data.mac_pan_id
                0x20000e90        0x2 contiki-srf06-cc26xx.a(frame802154.o)
 .data.interface
                0x20000e92        0x1 contiki-srf06-cc26xx.a(board-i2c.o)
 .data.dao_sequence
                0x20000e93        0x1 contiki-srf06-cc26xx.a(rpl-icmp6.o)
 .data.__fdlib_version
                0x20000e94        0x1 /home/paul/gcc-arm-none-eabi-5_2-2015q4/bin/../lib/gcc/arm-none-eabi/5.2.1/../../../../arm-none-eabi/lib/armv7-m/libm.a(lib_a-s_lib_ver.o)
                0x20000e94                __fdlib_version
                0x20000e95                _edata = .

.igot.plt       0x20000e98        0x0 load address 0x0001c3ae
 .igot.plt      0x20000e98        0x0 obj_srf06-cc26xx/startup_gcc.o

.ARM.exidx      0x0001c3b0        0x8
 *(SORT(.ARM.exidx*))
 .ARM.exidx     0x0001c3b0        0x8 /home/paul/gcc-arm-none-eabi-5_2-2015q4/bin/../lib/gcc/arm-none-eabi/5.2.1/armv7-m/libgcc.a(_udivmoddi4.o)

.bss            0x20000e98     0x3f40
                0x20000e98                _bss = .
 *(SORT(.bss*))
 .bss.count     0x20000e98        0x8 contiki-srf06-cc26xx.a(clock.o)
 .bss.et        0x20000ea0       0x10 cc26xx-web-demo.co
 .bss.def_rt_rssi
                0x20000eb0        0x4 cc26xx-web-demo.co
                0x20000eb0                def_rt_rssi
 .bss.echo_reply_notification
                0x20000eb4        0x8 cc26xx-web-demo.co
 .bss.sensor_list_list
                0x20000ebc        0x4 cc26xx-web-demo.co
 .bss.ct        0x20000ec0       0x20 cc26xx-web-demo.co
 .bss.echo_request_timer
                0x20000ee0       0x10 cc26xx-web-demo.co
 .bss.dest_addr
                0x20000ef0       0x10 obj_srf06-cc26xx/cetic-6lbr-client.o
 .bss.seq_id.7789
                0x20000f00        0x4 obj_srf06-cc26xx/cetic-6lbr-client.o
 .bss.client_conn
                0x20000f04        0x4 obj_srf06-cc26xx/cetic-6lbr-client.o
 .bss.et        0x20000f08       0x10 obj_srf06-cc26xx/cetic-6lbr-client.o
 .bss.udp_conn  0x20000f18        0x4 obj_srf06-cc26xx/net-uart.o
 .bss.remote_addr
                0x20000f1c       0x10 obj_srf06-cc26xx/net-uart.o
 .bss.buffer    0x20000f2c       0x64 obj_srf06-cc26xx/net-uart.o
 .bss.publish_periodic_timer
                0x20000f90       0x10 obj_srf06-cc26xx/mqtt-client.o
 .bss.reading   0x20000fa0        0x4 obj_srf06-cc26xx/mqtt-client.o
 .bss.def_route
                0x20000fa4       0x10 obj_srf06-cc26xx/mqtt-client.o
 .bss.connection_life
                0x20000fb4        0x8 obj_srf06-cc26xx/mqtt-client.o
 .bss.sub_topic
                0x20000fbc       0x40 obj_srf06-cc26xx/mqtt-client.o
 .bss.pub_topic
                0x20000ffc       0x40 obj_srf06-cc26xx/mqtt-client.o
 .bss.client_id
                0x2000103c       0x40 obj_srf06-cc26xx/mqtt-client.o
 .bss.ct        0x2000107c       0x20 obj_srf06-cc26xx/mqtt-client.o
 .bss.app_buffer
                0x2000109c      0x200 obj_srf06-cc26xx/mqtt-client.o
 .bss.buf_ptr   0x2000129c        0x4 obj_srf06-cc26xx/mqtt-client.o
 .bss.conn      0x200012a0      0x760 obj_srf06-cc26xx/mqtt-client.o
 .bss.http_mqtt_a
                0x20001a00       0x80 obj_srf06-cc26xx/httpd-simple.o
 .bss.conns_memb_mem
                0x20001a80      0x360 obj_srf06-cc26xx/httpd-simple.o
 .bss.val_escaped
                0x20001de0       0x40 obj_srf06-cc26xx/httpd-simple.o
 .bss.state     0x20001e20        0x4 obj_srf06-cc26xx/httpd-simple.o
 .bss.val_len   0x20001e24        0x4 obj_srf06-cc26xx/httpd-simple.o
 .bss.lock      0x20001e28        0x4 obj_srf06-cc26xx/httpd-simple.o
 .bss.val       0x20001e2c       0x40 obj_srf06-cc26xx/httpd-simple.o
 .bss.pages_list_list
                0x20001e6c        0x4 obj_srf06-cc26xx/httpd-simple.o
 .bss.conns_memb_count
                0x20001e70        0x2 obj_srf06-cc26xx/httpd-simple.o
 *fill*         0x20001e72        0x2 
 .bss.handler   0x20001e74        0x4 obj_srf06-cc26xx/httpd-simple.o
 .bss.post_handlers_list
                0x20001e78        0x4 obj_srf06-cc26xx/httpd-simple.o
 .bss.key_len   0x20001e7c        0x4 obj_srf06-cc26xx/httpd-simple.o
 .bss.key       0x20001e80       0x40 obj_srf06-cc26xx/httpd-simple.o
 .bss.response.8510
                0x20001ec0       0xa4 contiki-srf06-cc26xx.a(er-coap-engine.)
 .bss.transaction.8511
                0x20001f64        0x4 contiki-srf06-cc26xx.a(er-coap-engine.)
 .bss.message.8509
                0x20001f68       0xa4 contiki-srf06-cc26xx.a(er-coap-engine.)
 .bss.service_cbk
                0x2000200c        0x4 contiki-srf06-cc26xx.a(er-coap-engine.)
 .bss.transactions_list_list
                0x20002010        0x4 contiki-srf06-cc26xx.a(er-coap-transac)
 .bss.transaction_handler_process
                0x20002014        0x4 contiki-srf06-cc26xx.a(er-coap-transac)
 .bss.transactions_memb_memb_count
                0x20002018        0x4 contiki-srf06-cc26xx.a(er-coap-transac)
 .bss.transactions_memb_memb_mem
                0x2000201c      0x2e0 contiki-srf06-cc26xx.a(er-coap-transac)
 .bss.observers_memb_memb_mem
                0x200022fc       0xf0 contiki-srf06-cc26xx.a(er-coap-observe)
 .bss.observers_memb_memb_count
                0x200023ec        0x3 contiki-srf06-cc26xx.a(er-coap-observe)
 *fill*         0x200023ef        0x1 
 .bss.observers_list_list
                0x200023f0        0x4 contiki-srf06-cc26xx.a(er-coap-observe)
 .bss.restful_periodic_services_list
                0x200023f4        0x4 contiki-srf06-cc26xx.a(rest-engine.o)
 .bss.restful_services_list
                0x200023f8        0x4 contiki-srf06-cc26xx.a(rest-engine.o)
 .bss.conn.8626
                0x200023fc        0x4 contiki-srf06-cc26xx.a(mqtt.o)
 .bss.mqtt_conn_list_list
                0x20002400        0x4 contiki-srf06-cc26xx.a(mqtt.o)
 .bss.events.4901
                0x20002404        0x4 contiki-srf06-cc26xx.a(sensors.o)
 .bss.i.4900    0x20002408        0x4 contiki-srf06-cc26xx.a(sensors.o)
 .bss.inited    0x2000240c        0x4 contiki-srf06-cc26xx.a(leds-arch.o)
 .bss.sensor_value
                0x20002410        0x6 contiki-srf06-cc26xx.a(bmp-280-sensor.)
 *fill*         0x20002416        0x2 
 .bss.calibration_data
                0x20002418       0x18 contiki-srf06-cc26xx.a(bmp-280-sensor.)
 .bss.startup_timer
                0x20002430       0x20 contiki-srf06-cc26xx.a(bmp-280-sensor.)
 .bss.enabled   0x20002450        0x4 contiki-srf06-cc26xx.a(bmp-280-sensor.)
 .bss.obj_temp_latched
                0x20002454        0x4 contiki-srf06-cc26xx.a(tmp-007-sensor.)
 .bss.startup_timer
                0x20002458       0x20 contiki-srf06-cc26xx.a(tmp-007-sensor.)
 .bss.enabled   0x20002478        0x4 contiki-srf06-cc26xx.a(tmp-007-sensor.)
 .bss.buf       0x2000247c        0x4 contiki-srf06-cc26xx.a(tmp-007-sensor.)
 .bss.amb_temp_latched
                0x20002480        0x4 contiki-srf06-cc26xx.a(tmp-007-sensor.)
 .bss.startup_timer
                0x20002484       0x20 contiki-srf06-cc26xx.a(opt-3001-sensor)
 .bss.state     0x200024a4        0x4 contiki-srf06-cc26xx.a(opt-3001-sensor)
 .bss.startup_timer
                0x200024a8       0x20 contiki-srf06-cc26xx.a(hdc-1000-sensor)
 .bss.enabled   0x200024c8        0x4 contiki-srf06-cc26xx.a(hdc-1000-sensor)
 .bss.data      0x200024cc        0x4 contiki-srf06-cc26xx.a(hdc-1000-sensor)
 .bss.sensor_value
                0x200024d0        0x6 contiki-srf06-cc26xx.a(mpu-9250-sensor)
 *fill*         0x200024d6        0x2 
 .bss.startup_timer
                0x200024d8       0x20 contiki-srf06-cc26xx.a(mpu-9250-sensor)
 .bss.state     0x200024f8        0x4 contiki-srf06-cc26xx.a(mpu-9250-sensor)
 .bss.elements  0x200024fc        0x4 contiki-srf06-cc26xx.a(mpu-9250-sensor)
 .bss.left_timer
                0x20002500       0x10 contiki-srf06-cc26xx.a(button-sensor.o)
 .bss.debouncetimer
                0x20002510        0x8 contiki-srf06-cc26xx.a(reed-relay.o)
 .bss.last_isr_time
                0x20002518        0x4 contiki-srf06-cc26xx.a(soc-rtc.o)
 .bss.enabled   0x2000251c        0x4 contiki-srf06-cc26xx.a(batmon-sensor.o)
 .bss.input_handler
                0x20002520        0x4 contiki-srf06-cc26xx.a(cc26xx-uart.o)
 .bss.modules_list_list
                0x20002524        0x4 contiki-srf06-cc26xx.a(lpm.o)
 .bss.handlers  0x20002528       0x80 contiki-srf06-cc26xx.a(gpio-interrupt.)
 .bss.i         0x200025a8        0x4 contiki-srf06-cc26xx.a(rf-ble.o)
 .bss.p         0x200025ac        0x4 contiki-srf06-cc26xx.a(rf-ble.o)
 .bss.ble_params_buf
                0x200025b0       0x20 contiki-srf06-cc26xx.a(rf-ble.o)
 .bss.ble_adv_et
                0x200025d0       0x10 contiki-srf06-cc26xx.a(rf-ble.o)
 .bss.payload   0x200025e0       0x40 contiki-srf06-cc26xx.a(rf-ble.o)
 .bss.rf_stats  0x20002620       0x10 contiki-srf06-cc26xx.a(ieee-mode.o)
 .bss.rx_data_queue
                0x20002630        0x8 contiki-srf06-cc26xx.a(ieee-mode.o)
 .bss.rx_read_entry
                0x20002638        0x4 contiki-srf06-cc26xx.a(ieee-mode.o)
 .bss.cmd_ieee_rx_buf
                0x2000263c       0x80 contiki-srf06-cc26xx.a(ieee-mode.o)
 .bss.tx_buf    0x200026bc       0xb6 contiki-srf06-cc26xx.a(ieee-mode.o)
 *fill*         0x20002772        0x2 
 .bss.rx_buf_1  0x20002774       0x8c contiki-srf06-cc26xx.a(ieee-mode.o)
 .bss.rx_buf_0  0x20002800       0x8c contiki-srf06-cc26xx.a(ieee-mode.o)
 .bss.rx_buf_2  0x2000288c       0x8c contiki-srf06-cc26xx.a(ieee-mode.o)
 .bss.rx_buf_3  0x20002918       0x8c contiki-srf06-cc26xx.a(ieee-mode.o)
 .bss.ctimer_list_list
                0x200029a4        0x4 contiki-srf06-cc26xx.a(ctimer.o)
 .bss.timerlist
                0x200029a8        0x4 contiki-srf06-cc26xx.a(etimer.o)
 .bss.next_expiration
                0x200029ac        0x4 contiki-srf06-cc26xx.a(etimer.o)
 .bss.p.5288    0x200029b0        0x4 contiki-srf06-cc26xx.a(process.o)
 .bss.process_current
                0x200029b4        0x4 contiki-srf06-cc26xx.a(process.o)
                0x200029b4                process_current
 .bss.process_list
                0x200029b8        0x4 contiki-srf06-cc26xx.a(process.o)
                0x200029b8                process_list
 .bss.events    0x200029bc      0x180 contiki-srf06-cc26xx.a(process.o)
 .bss.data.5286
                0x20002b3c        0x4 contiki-srf06-cc26xx.a(process.o)
 .bss.next_rtimer
                0x20002b40        0x4 contiki-srf06-cc26xx.a(rtimer.o)
 .bss.rxbuf_data
                0x20002b44       0x80 contiki-srf06-cc26xx.a(serial-line.o)
 .bss.rxbuf     0x20002bc4        0x8 contiki-srf06-cc26xx.a(serial-line.o)
 .bss.ptr.4885  0x20002bcc        0x4 contiki-srf06-cc26xx.a(serial-line.o)
 .bss.buf.4884  0x20002bd0       0x80 contiki-srf06-cc26xx.a(serial-line.o)
 .bss.context   0x20002c50        0x4 contiki-srf06-cc26xx.a(sicslowpan.o)
 .bss.last_rssi
                0x20002c54        0x4 contiki-srf06-cc26xx.a(sicslowpan.o)
 .bss.hc06_ptr  0x20002c58        0x4 contiki-srf06-cc26xx.a(sicslowpan.o)
 .bss.frag_info
                0x20002c5c      0x170 contiki-srf06-cc26xx.a(sicslowpan.o)
 .bss.addr_contexts
                0x20002dcc        0xa contiki-srf06-cc26xx.a(sicslowpan.o)
 *fill*         0x20002dd6        0x2 
 .bss.packetbuf_ptr
                0x20002dd8        0x4 contiki-srf06-cc26xx.a(sicslowpan.o)
 .bss.last_tx_status
                0x20002ddc        0x4 contiki-srf06-cc26xx.a(sicslowpan.o)
 .bss.frag_buf  0x20002de0      0x54c contiki-srf06-cc26xx.a(sicslowpan.o)
 .bss.packetbuf_payload_len
                0x2000332c        0x4 contiki-srf06-cc26xx.a(sicslowpan.o)
 .bss.callback  0x20003330        0x4 contiki-srf06-cc26xx.a(sicslowpan.o)
 .bss.iss       0x20003334        0x4 contiki-srf06-cc26xx.a(uip6.o)
 .bss.locmaddr  0x20003338        0x4 contiki-srf06-cc26xx.a(uip-ds6.o)
 .bss.locprefix
                0x2000333c        0x4 contiki-srf06-cc26xx.a(uip-ds6.o)
 .bss.locaddr   0x20003340        0x4 contiki-srf06-cc26xx.a(uip-ds6.o)
 .bss.loc_fipaddr
                0x20003344       0x10 contiki-srf06-cc26xx.a(uip-ds6.o)
 .bss._ds6_neighbors_mem
                0x20003354      0x140 contiki-srf06-cc26xx.a(uip-ds6-nbr.o)
 .bss.defaultroutermemb_memb_mem
                0x20003494       0x40 contiki-srf06-cc26xx.a(uip-ds6-route.o)
 .bss.num_routes
                0x200034d4        0x4 contiki-srf06-cc26xx.a(uip-ds6-route.o)
 .bss.defaultroutermemb_memb_count
                0x200034d8        0x2 contiki-srf06-cc26xx.a(uip-ds6-route.o)
 *fill*         0x200034da        0x2 
 .bss.defaultrouterlist_list
                0x200034dc        0x4 contiki-srf06-cc26xx.a(uip-ds6-route.o)
 .bss._nbr_routes_mem
                0x200034e0       0x40 contiki-srf06-cc26xx.a(uip-ds6-route.o)
 .bss.routelist_list
                0x20003520        0x4 contiki-srf06-cc26xx.a(uip-ds6-route.o)
 .bss.routememb_memb_mem
                0x20003524      0x140 contiki-srf06-cc26xx.a(uip-ds6-route.o)
 .bss.neighborroutememb_memb_mem
                0x20003664       0x40 contiki-srf06-cc26xx.a(uip-ds6-route.o)
 .bss.notificationlist_list
                0x200036a4        0x4 contiki-srf06-cc26xx.a(uip-ds6-route.o)
 .bss.neighborroutememb_memb_count
                0x200036a8        0x8 contiki-srf06-cc26xx.a(uip-ds6-route.o)
 .bss.routememb_memb_count
                0x200036b0        0x8 contiki-srf06-cc26xx.a(uip-ds6-route.o)
 .bss.tmp_ipaddr
                0x200036b8       0x10 contiki-srf06-cc26xx.a(uip-icmp6.o)
 .bss.echo_reply_callback_list_list
                0x200036c8        0x4 contiki-srf06-cc26xx.a(uip-icmp6.o)
 .bss.input_handler_list_list
                0x200036cc        0x4 contiki-srf06-cc26xx.a(uip-icmp6.o)
 .bss.s         0x200036d0       0xa4 contiki-srf06-cc26xx.a(tcpip.o)
 .bss.periodic  0x20003774       0x10 contiki-srf06-cc26xx.a(tcpip.o)
 .bss.outputfunc
                0x20003784        0x4 contiki-srf06-cc26xx.a(tcpip.o)
 .bss.socketlist_list
                0x20003788        0x4 contiki-srf06-cc26xx.a(tcp-socket.o)
 .bss._rpl_parents_mem
                0x2000378c       0x80 contiki-srf06-cc26xx.a(rpl-dag.o)
 .bss.periodic_timer
                0x2000380c       0x20 contiki-srf06-cc26xx.a(rpl-timers.o)
 .bss.powerQualGlobals
                0x2000382c        0x8 contiki-srf06-cc26xx.a(sys_ctrl.o)
 .bss.neighbor_addr_mem_memb_count
                0x20003834        0x8 contiki-srf06-cc26xx.a(nbr-table.o)
 .bss.locked_map
                0x2000383c        0x8 contiki-srf06-cc26xx.a(nbr-table.o)
 .bss.nbr_table_keys_list
                0x20003844        0x4 contiki-srf06-cc26xx.a(nbr-table.o)
 .bss.neighbor_addr_mem_memb_mem
                0x20003848       0x60 contiki-srf06-cc26xx.a(nbr-table.o)
 .bss.used_map  0x200038a8        0x8 contiki-srf06-cc26xx.a(nbr-table.o)
 .bss.all_tables
                0x200038b0       0x20 contiki-srf06-cc26xx.a(nbr-table.o)
 .bss.num_tables
                0x200038d0        0x4 contiki-srf06-cc26xx.a(nbr-table.o)
 .bss.packetbufptr
                0x200038d4        0x4 contiki-srf06-cc26xx.a(packetbuf.o)
 .bss.packetbuf_aligned
                0x200038d8       0xb0 contiki-srf06-cc26xx.a(packetbuf.o)
 .bss.buframmem_memb_count
                0x20003988        0x8 contiki-srf06-cc26xx.a(queuebuf.o)
 .bss.bufmem_memb_mem
                0x20003990       0x20 contiki-srf06-cc26xx.a(queuebuf.o)
 .bss.buframmem_memb_mem
                0x200039b0      0x580 contiki-srf06-cc26xx.a(queuebuf.o)
 .bss.bufmem_memb_count
                0x20003f30        0x8 contiki-srf06-cc26xx.a(queuebuf.o)
 .bss.metadata_memb_memb_count
                0x20003f38        0x8 contiki-srf06-cc26xx.a(csma.o)
 .bss.packet_memb_memb_count
                0x20003f40        0x8 contiki-srf06-cc26xx.a(csma.o)
 .bss.metadata_memb_memb_mem
                0x20003f48       0x60 contiki-srf06-cc26xx.a(csma.o)
 .bss.neighbor_list_list
                0x20003fa8        0x4 contiki-srf06-cc26xx.a(csma.o)
 .bss.packet_memb_memb_mem
                0x20003fac       0x60 contiki-srf06-cc26xx.a(csma.o)
 .bss.neighbor_memb_memb_count
                0x2000400c        0x2 contiki-srf06-cc26xx.a(csma.o)
 *fill*         0x2000400e        0x2 
 .bss.neighbor_memb_memb_mem
                0x20004010       0x70 contiki-srf06-cc26xx.a(csma.o)
 .bss.cycle_start
                0x20004080        0x4 contiki-srf06-cc26xx.a(contikimac.o)
 .bss.we_are_receiving_burst
                0x20004084        0x4 contiki-srf06-cc26xx.a(contikimac.o)
 .bss.rt        0x20004088        0xc contiki-srf06-cc26xx.a(contikimac.o)
 .bss.start.7077
                0x20004094        0x4 contiki-srf06-cc26xx.a(contikimac.o)
 .bss.pt        0x20004098        0x2 contiki-srf06-cc26xx.a(contikimac.o)
 *fill*         0x2000409a        0x2 
 .bss.ct.7152   0x2000409c       0x20 contiki-srf06-cc26xx.a(contikimac.o)
 .bss.udp_conn  0x200040bc        0x4 contiki-srf06-cc26xx.a(er-coap.o)
 .bss.buffer    0x200040c0       0x20 contiki-srf06-cc26xx.a(sensor-common.o)
 .bss.last_radio_op
                0x200040e0        0x4 contiki-srf06-cc26xx.a(rf-core.o)
 .bss.primary_mode
                0x200040e4        0x4 contiki-srf06-cc26xx.a(rf-core.o)
 .bss.received_seqnos
                0x200040e8       0x90 contiki-srf06-cc26xx.a(mac-sequence.o)
 .bss.seq_nr_value
                0x20004178        0x2 obj_srf06-cc26xx/mqtt-client.o
 .bss.numtimes  0x2000417a        0x2 obj_srf06-cc26xx/httpd-simple.o
 .bss.val       0x2000417c        0x2 contiki-srf06-cc26xx.a(tmp-007-sensor.)
 .bss.raw_temp  0x2000417e        0x2 contiki-srf06-cc26xx.a(hdc-1000-sensor)
 .bss.raw_hum   0x20004180        0x2 contiki-srf06-cc26xx.a(hdc-1000-sensor)
 .bss.my_tag    0x20004182        0x2 contiki-srf06-cc26xx.a(sicslowpan.o)
 .bss.tmp16     0x20004184        0x2 contiki-srf06-cc26xx.a(uip6.o)
 .bss.lastport  0x20004186        0x2 contiki-srf06-cc26xx.a(uip6.o)
 .bss.next_dis  0x20004188        0x2 contiki-srf06-cc26xx.a(rpl-timers.o)
 .bss.buflen    0x2000418a        0x2 contiki-srf06-cc26xx.a(packetbuf.o)
 .bss.bufptr    0x2000418c        0x2 contiki-srf06-cc26xx.a(packetbuf.o)
 .bss.seqno.6333
                0x2000418e        0x2 contiki-srf06-cc26xx.a(csma.o)
 .bss.current_mid
                0x20004190        0x2 contiki-srf06-cc26xx.a(er-coap.o)
 .bss.state     0x20004192        0x1 obj_srf06-cc26xx/mqtt-client.o
 .bss.connect_attempt
                0x20004193        0x1 obj_srf06-cc26xx/mqtt-client.o
 .bss.config_ok
                0x20004194        0x1 obj_srf06-cc26xx/httpd-simple.o
 .bss.initialized.5782
                0x20004195        0x1 contiki-srf06-cc26xx.a(rest-engine.o)
 .bss.mqtt_do_pingreq_event
                0x20004196        0x1 contiki-srf06-cc26xx.a(mqtt.o)
 .bss.mqtt_event_min
                0x20004197        0x1 contiki-srf06-cc26xx.a(mqtt.o)
 .bss.mqtt_event_max
                0x20004198        0x1 contiki-srf06-cc26xx.a(mqtt.o)
 .bss.mqtt_do_connect_mqtt_event
                0x20004199        0x1 contiki-srf06-cc26xx.a(mqtt.o)
 .bss.mqtt_do_publish_event
                0x2000419a        0x1 contiki-srf06-cc26xx.a(mqtt.o)
 .bss.mqtt_continue_send_event
                0x2000419b        0x1 contiki-srf06-cc26xx.a(mqtt.o)
 .bss.inited.8658
                0x2000419c        0x1 contiki-srf06-cc26xx.a(mqtt.o)
 .bss.mqtt_do_disconnect_mqtt_event
                0x2000419d        0x1 contiki-srf06-cc26xx.a(mqtt.o)
 .bss.mqtt_abort_now_event
                0x2000419e        0x1 contiki-srf06-cc26xx.a(mqtt.o)
 .bss.mqtt_do_subscribe_event
                0x2000419f        0x1 contiki-srf06-cc26xx.a(mqtt.o)
 .bss.mqtt_do_unsubscribe_event
                0x200041a0        0x1 contiki-srf06-cc26xx.a(mqtt.o)
 .bss.mqtt_do_connect_tcp_event
                0x200041a1        0x1 contiki-srf06-cc26xx.a(mqtt.o)
 .bss.num_sensors
                0x200041a2        0x1 contiki-srf06-cc26xx.a(sensors.o)
 .bss.leds      0x200041a3        0x1 contiki-srf06-cc26xx.a(leds.o)
 .bss.c         0x200041a4        0x1 contiki-srf06-cc26xx.a(leds-arch.o)
 .bss.success   0x200041a5        0x1 contiki-srf06-cc26xx.a(hdc-1000-sensor)
 .bss.interrupt_status
                0x200041a6        0x1 contiki-srf06-cc26xx.a(mpu-9250-sensor)
 .bss.acc_range_reg
                0x200041a7        0x1 contiki-srf06-cc26xx.a(mpu-9250-sensor)
 .bss.mpu_config
                0x200041a8        0x1 contiki-srf06-cc26xx.a(mpu-9250-sensor)
 .bss.acc_range
                0x200041a9        0x1 contiki-srf06-cc26xx.a(mpu-9250-sensor)
 .bss.val       0x200041aa        0x1 contiki-srf06-cc26xx.a(mpu-9250-sensor)
 .bss.buzzer_on
                0x200041ab        0x1 contiki-srf06-cc26xx.a(buzzer.o)
 .bss.slave_addr
                0x200041ac        0x1 contiki-srf06-cc26xx.a(board-i2c.o)
 .bss.ble_mode_on
                0x200041ad        0x1 contiki-srf06-cc26xx.a(rf-ble.o)
 .bss.initialized
                0x200041ae        0x1 contiki-srf06-cc26xx.a(ctimer.o)
 .bss.fevent    0x200041af        0x1 contiki-srf06-cc26xx.a(process.o)
 .bss.ev.5285   0x200041b0        0x1 contiki-srf06-cc26xx.a(process.o)
 .bss.nevents   0x200041b1        0x1 contiki-srf06-cc26xx.a(process.o)
 .bss.poll_requested
                0x200041b2        0x1 contiki-srf06-cc26xx.a(process.o)
 .bss.lastevent
                0x200041b3        0x1 contiki-srf06-cc26xx.a(process.o)
 .bss.overflow.4878
                0x200041b4        0x1 contiki-srf06-cc26xx.a(serial-line.o)
 .bss.uncomp_hdr_len
                0x200041b5        0x1 contiki-srf06-cc26xx.a(sicslowpan.o)
 .bss.packetbuf_hdr_len
                0x200041b6        0x1 contiki-srf06-cc26xx.a(sicslowpan.o)
 .bss.uip_ext_len
                0x200041b7        0x1 contiki-srf06-cc26xx.a(uip6.o)
                0x200041b7                uip_ext_len
 .bss.uip_ext_bitmap
                0x200041b8        0x1 contiki-srf06-cc26xx.a(uip6.o)
                0x200041b8                uip_ext_bitmap
 .bss.uip_ext_opt_offset
                0x200041b9        0x1 contiki-srf06-cc26xx.a(uip6.o)
                0x200041b9                uip_ext_opt_offset
 .bss.c         0x200041ba        0x1 contiki-srf06-cc26xx.a(uip6.o)
 .bss.i.7925    0x200041bb        0x1 contiki-srf06-cc26xx.a(tcpip.o)
 .bss.i.7881    0x200041bc        0x1 contiki-srf06-cc26xx.a(tcpip.o)
 .bss.i.7937    0x200041bd        0x1 contiki-srf06-cc26xx.a(tcpip.o)
 .bss.i.7835    0x200041be        0x1 contiki-srf06-cc26xx.a(tcpip.o)
 .bss.i.7843    0x200041bf        0x1 contiki-srf06-cc26xx.a(tcpip.o)
 .bss.inited.7664
                0x200041c0        0x1 contiki-srf06-cc26xx.a(tcp-socket.o)
 .bss.mode      0x200041c1        0x1 contiki-srf06-cc26xx.a(rpl.o)
 .bss.dio_send_ok
                0x200041c2        0x1 contiki-srf06-cc26xx.a(rpl-timers.o)
 .bss.hdrptr    0x200041c3        0x1 contiki-srf06-cc26xx.a(packetbuf.o)
 .bss.initialized.6332
                0x200041c4        0x1 contiki-srf06-cc26xx.a(csma.o)
 .bss.mac_dsn   0x200041c5        0x1 contiki-srf06-cc26xx.a(framer-802154.o)
 .bss.initialized
                0x200041c6        0x1 contiki-srf06-cc26xx.a(framer-802154.o)
 .bss.radio_is_on
                0x200041c7        0x1 contiki-srf06-cc26xx.a(contikimac.o)
 .bss.we_are_sending
                0x200041c8        0x1 contiki-srf06-cc26xx.a(contikimac.o)
 .bss.contikimac_keep_radio_on
                0x200041c9        0x1 contiki-srf06-cc26xx.a(contikimac.o)
 .bss.packet_seen.7071
                0x200041ca        0x1 contiki-srf06-cc26xx.a(contikimac.o)
 .bss.count.7072
                0x200041cb        0x1 contiki-srf06-cc26xx.a(contikimac.o)
 .bss.contikimac_is_on
                0x200041cc        0x1 contiki-srf06-cc26xx.a(contikimac.o)
 .bss.periods.7079
                0x200041cd        0x1 contiki-srf06-cc26xx.a(contikimac.o)
 .bss.silence_periods.7078
                0x200041ce        0x1 contiki-srf06-cc26xx.a(contikimac.o)
 .bss.erbium_status_code
                0x200041cf        0x1 contiki-srf06-cc26xx.a(er-coap.o)
                0x200041cf                erbium_status_code
 *(SORT(COMMON))
 COMMON         0x200041d0      0x1f0 cc26xx-web-demo.co
                0x200041d0                cc26xx_web_demo_publish_event
                0x200041d4                cc26xx_web_demo_config
                0x200042f8                tmp_timer
                0x20004318                opt_timer
                0x20004338                cc26xx_web_demo_config_loaded_event
                0x2000433c                bmp_timer
                0x2000435c                batmon_timer
                0x2000437c                cc26xx_web_demo_load_config_defaults
                0x20004380                mpu_timer
                0x200043a0                hdc_timer
 COMMON         0x200043c0        0x4 obj_srf06-cc26xx/mqtt-client.o
                0x200043c0                conf
 COMMON         0x200043c4        0x9 contiki-srf06-cc26xx.a(sensortag-senso)
                0x200043c4                sensors_flags
 *fill*         0x200043cd        0x3 
 COMMON         0x200043d0        0x4 contiki-srf06-cc26xx.a(mpu-9250-sensor)
                0x200043d0                t0
 COMMON         0x200043d4      0x700 contiki-srf06-cc26xx.a(uip6.o)
                0x200043d4                uip_len
                0x200043d8                uip_sappdata
                0x200043dc                uip_acc32
                0x200043e0                uip_lladdr
                0x200043e8                uip_aligned_buf
                0x2000476c                uip_flags
                0x20004770                uip_next_hdr
                0x20004774                uip_udp_conn
                0x20004778                uip_appdata
                0x2000477c                uip_conn
                0x20004780                uip_conns
                0x20004960                uip_icmp6_conns
                0x20004968                uip_listenports
                0x20004990                uip_slen
                0x20004994                uip_udp_conns
 COMMON         0x20004ad4      0x174 contiki-srf06-cc26xx.a(uip-ds6.o)
                0x20004ad4                uip_ds6_timer_ra
                0x20004adc                uip_ds6_if
                0x20004bd4                uip_ds6_netif_addr_list_offset
                0x20004bd5                uip_ds6_addr_size
                0x20004bd8                uip_ds6_prefix_list
                0x20004c38                uip_ds6_timer_periodic
 COMMON         0x20004c48      0x154 contiki-srf06-cc26xx.a(rpl-dag.o)
                0x20004c48                default_instance
                0x20004c4c                instance_table
 COMMON         0x20004d9c        0x8 contiki-srf06-cc26xx.a(linkaddr.o)
                0x20004d9c                linkaddr_node_addr
 COMMON         0x20004da4       0x2e contiki-srf06-cc26xx.a(packetbuf.o)
                0x20004da4                packetbuf_addrs
                0x20004db4                packetbuf_attrs
 COMMON         0x20004dd2        0x1 obj_srf06-cc26xx/httpd-simple.o
                0x20004dd2                httpd_simple_event_new_config
 COMMON         0x20004dd3        0x1 contiki-srf06-cc26xx.a(mqtt.o)
                0x20004dd3                mqtt_update_event
 COMMON         0x20004dd4        0x1 contiki-srf06-cc26xx.a(sensors.o)
                0x20004dd4                sensors_event
 COMMON         0x20004dd5        0x1 contiki-srf06-cc26xx.a(serial-line.o)
                0x20004dd5                serial_line_event_message
 COMMON         0x20004dd6        0x2 contiki-srf06-cc26xx.a(tcpip.o)
                0x20004dd6                tcpip_event
                0x20004dd7                tcpip_icmp6_event
                0x20004dd8                _ebss = .

.ccfg           0x0001ffa8       0x58
 *(SORT(.ccfg))
 .ccfg          0x0001ffa8       0x58 obj_srf06-cc26xx/ccfg.o
                0x0001ffa8                __ccfg

.rel.dyn        0x00020000        0x0
 .rel.iplt      0x00020000        0x0 obj_srf06-cc26xx/startup_gcc.o

._user_heap_stack
                0x20004dd8      0x100
                0x20004dd8                . = ALIGN (0x4)
                0x20004dd8                . = (. + _Min_Heap_Size)
                0x20004ed8                . = (. + _Min_Stack_Size)
 *fill*         0x20004dd8      0x100 
                0x20004ed8                . = ALIGN (0x4)

.gpram
OUTPUT(cc26xx-web-demo.elf elf32-littlearm)

.comment        0x00000000       0x6e
 .comment       0x00000000       0x6e obj_srf06-cc26xx/fault-handlers.o
                                 0x6f (size before relaxing)
 .comment       0x0000006e       0x6f obj_srf06-cc26xx/ccfg.o
 .comment       0x0000006e       0x6f obj_srf06-cc26xx/startup_gcc.o
 .comment       0x0000006e       0x6f cc26xx-web-demo.co
 .comment       0x0000006e       0x6f obj_srf06-cc26xx/res-leds.o
 .comment       0x0000006e       0x6f obj_srf06-cc26xx/res-toggle-leds.o
 .comment       0x0000006e       0x6f obj_srf06-cc26xx/res-device.o
 .comment       0x0000006e       0x6f obj_srf06-cc26xx/res-sensors.o
 .comment       0x0000006e       0x6f obj_srf06-cc26xx/res-ble-advd.o
 .comment       0x0000006e       0x6f obj_srf06-cc26xx/res-net.o
 .comment       0x0000006e       0x6f obj_srf06-cc26xx/cetic-6lbr-client.o
 .comment       0x0000006e       0x6f obj_srf06-cc26xx/coap-server.o
 .comment       0x0000006e       0x6f obj_srf06-cc26xx/net-uart.o
 .comment       0x0000006e       0x6f obj_srf06-cc26xx/mqtt-client.o
 .comment       0x0000006e       0x6f obj_srf06-cc26xx/httpd-simple.o
 .comment       0x0000006e       0x6f contiki-srf06-cc26xx.a(er-coap-engine.)
 .comment       0x0000006e       0x6f contiki-srf06-cc26xx.a(er-coap-transac)
 .comment       0x0000006e       0x6f contiki-srf06-cc26xx.a(er-coap-observe)
 .comment       0x0000006e       0x6f contiki-srf06-cc26xx.a(er-coap-res-wel)
 .comment       0x0000006e       0x6f contiki-srf06-cc26xx.a(rest-engine.o)
 .comment       0x0000006e       0x6f contiki-srf06-cc26xx.a(mqtt.o)
 .comment       0x0000006e       0x6f contiki-srf06-cc26xx.a(contiki-main.o)
 .comment       0x0000006e       0x6f contiki-srf06-cc26xx.a(sensors.o)
 .comment       0x0000006e       0x6f contiki-srf06-cc26xx.a(leds.o)
 .comment       0x0000006e       0x6f contiki-srf06-cc26xx.a(leds-arch.o)
 .comment       0x0000006e       0x6f contiki-srf06-cc26xx.a(sensortag-senso)
 .comment       0x0000006e       0x6f contiki-srf06-cc26xx.a(bmp-280-sensor.)
 .comment       0x0000006e       0x6f contiki-srf06-cc26xx.a(tmp-007-sensor.)
 .comment       0x0000006e       0x6f contiki-srf06-cc26xx.a(opt-3001-sensor)
 .comment       0x0000006e       0x6f contiki-srf06-cc26xx.a(hdc-1000-sensor)
 .comment       0x0000006e       0x6f contiki-srf06-cc26xx.a(mpu-9250-sensor)
 .comment       0x0000006e       0x6f contiki-srf06-cc26xx.a(button-sensor.o)
 .comment       0x0000006e       0x6f contiki-srf06-cc26xx.a(reed-relay.o)
 .comment       0x0000006e       0x6f contiki-srf06-cc26xx.a(ext-flash.o)
 .comment       0x0000006e       0x6f contiki-srf06-cc26xx.a(buzzer.o)
 .comment       0x0000006e       0x6f contiki-srf06-cc26xx.a(board.o)
 .comment       0x0000006e       0x6f contiki-srf06-cc26xx.a(board-spi.o)
 .comment       0x0000006e       0x6f contiki-srf06-cc26xx.a(board-i2c.o)
 .comment       0x0000006e       0x6f contiki-srf06-cc26xx.a(clock.o)
 .comment       0x0000006e       0x6f contiki-srf06-cc26xx.a(rtimer-arch.o)
 .comment       0x0000006e       0x6f contiki-srf06-cc26xx.a(soc-rtc.o)
 .comment       0x0000006e       0x6f contiki-srf06-cc26xx.a(contiki-watchdo)
 .comment       0x0000006e       0x6f contiki-srf06-cc26xx.a(putchar.o)
 .comment       0x0000006e       0x6f contiki-srf06-cc26xx.a(ieee-addr.o)
 .comment       0x0000006e       0x6f contiki-srf06-cc26xx.a(batmon-sensor.o)
 .comment       0x0000006e       0x6f contiki-srf06-cc26xx.a(cc26xx-uart.o)
 .comment       0x0000006e       0x6f contiki-srf06-cc26xx.a(lpm.o)
 .comment       0x0000006e       0x6f contiki-srf06-cc26xx.a(gpio-interrupt.)
 .comment       0x0000006e       0x6f contiki-srf06-cc26xx.a(oscillators.o)
 .comment       0x0000006e       0x6f contiki-srf06-cc26xx.a(rf-ble.o)
 .comment       0x0000006e       0x6f contiki-srf06-cc26xx.a(ieee-mode.o)
 .comment       0x0000006e       0x6f contiki-srf06-cc26xx.a(dbg-printf.o)
 .comment       0x0000006e       0x6f contiki-srf06-cc26xx.a(dbg-snprintf.o)
 .comment       0x0000006e       0x6f contiki-srf06-cc26xx.a(dbg-sprintf.o)
 .comment       0x0000006e       0x6f contiki-srf06-cc26xx.a(strformat.o)
 .comment       0x0000006e       0x6f contiki-srf06-cc26xx.a(autostart.o)
 .comment       0x0000006e       0x6f contiki-srf06-cc26xx.a(ctimer.o)
 .comment       0x0000006e       0x6f contiki-srf06-cc26xx.a(energest.o)
 .comment       0x0000006e       0x6f contiki-srf06-cc26xx.a(etimer.o)
 .comment       0x0000006e       0x6f contiki-srf06-cc26xx.a(process.o)
 .comment       0x0000006e       0x6f contiki-srf06-cc26xx.a(rtimer.o)
 .comment       0x0000006e       0x6f contiki-srf06-cc26xx.a(timer.o)
 .comment       0x0000006e       0x6f contiki-srf06-cc26xx.a(serial-line.o)
 .comment       0x0000006e       0x6f contiki-srf06-cc26xx.a(list.o)
 .comment       0x0000006e       0x6f contiki-srf06-cc26xx.a(memb.o)
 .comment       0x0000006e       0x6f contiki-srf06-cc26xx.a(random.o)
 .comment       0x0000006e       0x6f contiki-srf06-cc26xx.a(ringbuf.o)
 .comment       0x0000006e       0x6f contiki-srf06-cc26xx.a(sicslowpan.o)
 .comment       0x0000006e       0x6f contiki-srf06-cc26xx.a(uip6.o)
 .comment       0x0000006e       0x6f contiki-srf06-cc26xx.a(uip-ds6.o)
 .comment       0x0000006e       0x6f contiki-srf06-cc26xx.a(uip-ds6-nbr.o)
 .comment       0x0000006e       0x6f contiki-srf06-cc26xx.a(uip-ds6-route.o)
 .comment       0x0000006e       0x6f contiki-srf06-cc26xx.a(uip-icmp6.o)
 .comment       0x0000006e       0x6f contiki-srf06-cc26xx.a(uip-nd6.o)
 .comment       0x0000006e       0x6f contiki-srf06-cc26xx.a(psock.o)
 .comment       0x0000006e       0x6f contiki-srf06-cc26xx.a(tcpip.o)
 .comment       0x0000006e       0x6f contiki-srf06-cc26xx.a(tcp-socket.o)
 .comment       0x0000006e       0x6f contiki-srf06-cc26xx.a(uip-debug.o)
 .comment       0x0000006e       0x6f contiki-srf06-cc26xx.a(uiplib.o)
 .comment       0x0000006e       0x6f contiki-srf06-cc26xx.a(uip-udp-packet.)
 .comment       0x0000006e       0x6f contiki-srf06-cc26xx.a(rpl.o)
 .comment       0x0000006e       0x6f contiki-srf06-cc26xx.a(rpl-dag.o)
 .comment       0x0000006e       0x6f contiki-srf06-cc26xx.a(rpl-ext-header.)
 .comment       0x0000006e       0x6f contiki-srf06-cc26xx.a(rpl-icmp6.o)
 .comment       0x0000006e       0x6f contiki-srf06-cc26xx.a(rpl-mrhof.o)
 .comment       0x0000006e       0x6f contiki-srf06-cc26xx.a(rpl-timers.o)
 .comment       0x0000006e       0x6f contiki-srf06-cc26xx.a(aon_batmon.o)
 .comment       0x0000006e       0x6f contiki-srf06-cc26xx.a(aon_rtc.o)
 .comment       0x0000006e       0x6f contiki-srf06-cc26xx.a(chipinfo.o)
 .comment       0x0000006e       0x6f contiki-srf06-cc26xx.a(cpu.o)
 .comment       0x0000006e       0x6f contiki-srf06-cc26xx.a(ddi.o)
 .comment       0x0000006e       0x6f contiki-srf06-cc26xx.a(osc.o)
 .comment       0x0000006e       0x6f contiki-srf06-cc26xx.a(pwr_ctrl.o)
 .comment       0x0000006e       0x6f contiki-srf06-cc26xx.a(setup.o)
 .comment       0x0000006e       0x6f contiki-srf06-cc26xx.a(sys_ctrl.o)
 .comment       0x0000006e       0x6f contiki-srf06-cc26xx.a(linkaddr.o)
 .comment       0x0000006e       0x6f contiki-srf06-cc26xx.a(nbr-table.o)
 .comment       0x0000006e       0x6f contiki-srf06-cc26xx.a(netstack.o)
 .comment       0x0000006e       0x6f contiki-srf06-cc26xx.a(packetbuf.o)
 .comment       0x0000006e       0x6f contiki-srf06-cc26xx.a(queuebuf.o)
 .comment       0x0000006e       0x6f contiki-srf06-cc26xx.a(csma.o)
 .comment       0x0000006e       0x6f contiki-srf06-cc26xx.a(framer-802154.o)
 .comment       0x0000006e       0x6f contiki-srf06-cc26xx.a(mac.o)
 .comment       0x0000006e       0x6f contiki-srf06-cc26xx.a(contikimac.o)
 .comment       0x0000006e       0x6f contiki-srf06-cc26xx.a(nullsec.o)
 .comment       0x0000006e       0x6f contiki-srf06-cc26xx.a(er-coap.o)
 .comment       0x0000006e       0x6f contiki-srf06-cc26xx.a(sensor-common.o)
 .comment       0x0000006e       0x6f contiki-srf06-cc26xx.a(rf-core.o)
 .comment       0x0000006e       0x6f contiki-srf06-cc26xx.a(stimer.o)
 .comment       0x0000006e       0x6f contiki-srf06-cc26xx.a(frame802154.o)
 .comment       0x0000006e       0x6f contiki-srf06-cc26xx.a(mac-sequence.o)

.ARM.attributes
                0x00000000       0x31
 .ARM.attributes
                0x00000000       0x33 obj_srf06-cc26xx/fault-handlers.o
 .ARM.attributes
                0x00000033       0x33 obj_srf06-cc26xx/ccfg.o
 .ARM.attributes
                0x00000066       0x33 obj_srf06-cc26xx/startup_gcc.o
 .ARM.attributes
                0x00000099       0x33 cc26xx-web-demo.co
 .ARM.attributes
                0x000000cc       0x33 obj_srf06-cc26xx/res-leds.o
 .ARM.attributes
                0x000000ff       0x33 obj_srf06-cc26xx/res-toggle-leds.o
 .ARM.attributes
                0x00000132       0x33 obj_srf06-cc26xx/res-device.o
 .ARM.attributes
                0x00000165       0x33 obj_srf06-cc26xx/res-sensors.o
 .ARM.attributes
                0x00000198       0x33 obj_srf06-cc26xx/res-ble-advd.o
 .ARM.attributes
                0x000001cb       0x33 obj_srf06-cc26xx/res-net.o
 .ARM.attributes
                0x000001fe       0x33 obj_srf06-cc26xx/cetic-6lbr-client.o
 .ARM.attributes
                0x00000231       0x33 obj_srf06-cc26xx/coap-server.o
 .ARM.attributes
                0x00000264       0x33 obj_srf06-cc26xx/net-uart.o
 .ARM.attributes
                0x00000297       0x33 obj_srf06-cc26xx/mqtt-client.o
 .ARM.attributes
                0x000002ca       0x33 obj_srf06-cc26xx/httpd-simple.o
 .ARM.attributes
                0x000002fd       0x33 contiki-srf06-cc26xx.a(er-coap-engine.)
 .ARM.attributes
                0x00000330       0x33 contiki-srf06-cc26xx.a(er-coap-transac)
 .ARM.attributes
                0x00000363       0x33 contiki-srf06-cc26xx.a(er-coap-observe)
 .ARM.attributes
                0x00000396       0x33 contiki-srf06-cc26xx.a(er-coap-res-wel)
 .ARM.attributes
                0x000003c9       0x33 contiki-srf06-cc26xx.a(rest-engine.o)
 .ARM.attributes
                0x000003fc       0x33 contiki-srf06-cc26xx.a(mqtt.o)
 .ARM.attributes
                0x0000042f       0x33 contiki-srf06-cc26xx.a(contiki-main.o)
 .ARM.attributes
                0x00000462       0x33 contiki-srf06-cc26xx.a(sensors.o)
 .ARM.attributes
                0x00000495       0x33 contiki-srf06-cc26xx.a(leds.o)
 .ARM.attributes
                0x000004c8       0x33 contiki-srf06-cc26xx.a(leds-arch.o)
 .ARM.attributes
                0x000004fb       0x33 contiki-srf06-cc26xx.a(sensortag-senso)
 .ARM.attributes
                0x0000052e       0x33 contiki-srf06-cc26xx.a(bmp-280-sensor.)
 .ARM.attributes
                0x00000561       0x33 contiki-srf06-cc26xx.a(tmp-007-sensor.)
 .ARM.attributes
                0x00000594       0x33 contiki-srf06-cc26xx.a(opt-3001-sensor)
 .ARM.attributes
                0x000005c7       0x33 contiki-srf06-cc26xx.a(hdc-1000-sensor)
 .ARM.attributes
                0x000005fa       0x33 contiki-srf06-cc26xx.a(mpu-9250-sensor)
 .ARM.attributes
                0x0000062d       0x33 contiki-srf06-cc26xx.a(button-sensor.o)
 .ARM.attributes
                0x00000660       0x33 contiki-srf06-cc26xx.a(reed-relay.o)
 .ARM.attributes
                0x00000693       0x33 contiki-srf06-cc26xx.a(ext-flash.o)
 .ARM.attributes
                0x000006c6       0x33 contiki-srf06-cc26xx.a(buzzer.o)
 .ARM.attributes
                0x000006f9       0x33 contiki-srf06-cc26xx.a(board.o)
 .ARM.attributes
                0x0000072c       0x33 contiki-srf06-cc26xx.a(board-spi.o)
 .ARM.attributes
                0x0000075f       0x33 contiki-srf06-cc26xx.a(board-i2c.o)
 .ARM.attributes
                0x00000792       0x33 contiki-srf06-cc26xx.a(clock.o)
 .ARM.attributes
                0x000007c5       0x33 contiki-srf06-cc26xx.a(rtimer-arch.o)
 .ARM.attributes
                0x000007f8       0x33 contiki-srf06-cc26xx.a(soc-rtc.o)
 .ARM.attributes
                0x0000082b       0x33 contiki-srf06-cc26xx.a(contiki-watchdo)
 .ARM.attributes
                0x0000085e       0x33 contiki-srf06-cc26xx.a(putchar.o)
 .ARM.attributes
                0x00000891       0x33 contiki-srf06-cc26xx.a(ieee-addr.o)
 .ARM.attributes
                0x000008c4       0x33 contiki-srf06-cc26xx.a(batmon-sensor.o)
 .ARM.attributes
                0x000008f7       0x33 contiki-srf06-cc26xx.a(cc26xx-uart.o)
 .ARM.attributes
                0x0000092a       0x33 contiki-srf06-cc26xx.a(lpm.o)
 .ARM.attributes
                0x0000095d       0x33 contiki-srf06-cc26xx.a(gpio-interrupt.)
 .ARM.attributes
                0x00000990       0x33 contiki-srf06-cc26xx.a(oscillators.o)
 .ARM.attributes
                0x000009c3       0x33 contiki-srf06-cc26xx.a(rf-ble.o)
 .ARM.attributes
                0x000009f6       0x33 contiki-srf06-cc26xx.a(ieee-mode.o)
 .ARM.attributes
                0x00000a29       0x33 contiki-srf06-cc26xx.a(dbg-printf.o)
 .ARM.attributes
                0x00000a5c       0x33 contiki-srf06-cc26xx.a(dbg-snprintf.o)
 .ARM.attributes
                0x00000a8f       0x33 contiki-srf06-cc26xx.a(dbg-sprintf.o)
 .ARM.attributes
                0x00000ac2       0x33 contiki-srf06-cc26xx.a(strformat.o)
 .ARM.attributes
                0x00000af5       0x33 contiki-srf06-cc26xx.a(autostart.o)
 .ARM.attributes
                0x00000b28       0x33 contiki-srf06-cc26xx.a(ctimer.o)
 .ARM.attributes
                0x00000b5b       0x33 contiki-srf06-cc26xx.a(energest.o)
 .ARM.attributes
                0x00000b8e       0x33 contiki-srf06-cc26xx.a(etimer.o)
 .ARM.attributes
                0x00000bc1       0x33 contiki-srf06-cc26xx.a(process.o)
 .ARM.attributes
                0x00000bf4       0x33 contiki-srf06-cc26xx.a(rtimer.o)
 .ARM.attributes
                0x00000c27       0x33 contiki-srf06-cc26xx.a(timer.o)
 .ARM.attributes
                0x00000c5a       0x33 contiki-srf06-cc26xx.a(serial-line.o)
 .ARM.attributes
                0x00000c8d       0x33 contiki-srf06-cc26xx.a(list.o)
 .ARM.attributes
                0x00000cc0       0x33 contiki-srf06-cc26xx.a(memb.o)
 .ARM.attributes
                0x00000cf3       0x33 contiki-srf06-cc26xx.a(random.o)
 .ARM.attributes
                0x00000d26       0x33 contiki-srf06-cc26xx.a(ringbuf.o)
 .ARM.attributes
                0x00000d59       0x33 contiki-srf06-cc26xx.a(sicslowpan.o)
 .ARM.attributes
                0x00000d8c       0x33 contiki-srf06-cc26xx.a(uip6.o)
 .ARM.attributes
                0x00000dbf       0x33 contiki-srf06-cc26xx.a(uip-ds6.o)
 .ARM.attributes
                0x00000df2       0x33 contiki-srf06-cc26xx.a(uip-ds6-nbr.o)
 .ARM.attributes
                0x00000e25       0x33 contiki-srf06-cc26xx.a(uip-ds6-route.o)
 .ARM.attributes
                0x00000e58       0x33 contiki-srf06-cc26xx.a(uip-icmp6.o)
 .ARM.attributes
                0x00000e8b       0x33 contiki-srf06-cc26xx.a(uip-nd6.o)
 .ARM.attributes
                0x00000ebe       0x33 contiki-srf06-cc26xx.a(psock.o)
 .ARM.attributes
                0x00000ef1       0x33 contiki-srf06-cc26xx.a(tcpip.o)
 .ARM.attributes
                0x00000f24       0x33 contiki-srf06-cc26xx.a(tcp-socket.o)
 .ARM.attributes
                0x00000f57       0x33 contiki-srf06-cc26xx.a(uip-debug.o)
 .ARM.attributes
                0x00000f8a       0x33 contiki-srf06-cc26xx.a(uiplib.o)
 .ARM.attributes
                0x00000fbd       0x33 contiki-srf06-cc26xx.a(uip-udp-packet.)
 .ARM.attributes
                0x00000ff0       0x33 contiki-srf06-cc26xx.a(rpl.o)
 .ARM.attributes
                0x00001023       0x33 contiki-srf06-cc26xx.a(rpl-dag.o)
 .ARM.attributes
                0x00001056       0x33 contiki-srf06-cc26xx.a(rpl-ext-header.)
 .ARM.attributes
                0x00001089       0x33 contiki-srf06-cc26xx.a(rpl-icmp6.o)
 .ARM.attributes
                0x000010bc       0x33 contiki-srf06-cc26xx.a(rpl-mrhof.o)
 .ARM.attributes
                0x000010ef       0x33 contiki-srf06-cc26xx.a(rpl-timers.o)
 .ARM.attributes
                0x00001122       0x33 contiki-srf06-cc26xx.a(aon_batmon.o)
 .ARM.attributes
                0x00001155       0x33 contiki-srf06-cc26xx.a(aon_rtc.o)
 .ARM.attributes
                0x00001188       0x33 contiki-srf06-cc26xx.a(chipinfo.o)
 .ARM.attributes
                0x000011bb       0x33 contiki-srf06-cc26xx.a(cpu.o)
 .ARM.attributes
                0x000011ee       0x33 contiki-srf06-cc26xx.a(ddi.o)
 .ARM.attributes
                0x00001221       0x33 contiki-srf06-cc26xx.a(osc.o)
 .ARM.attributes
                0x00001254       0x33 contiki-srf06-cc26xx.a(pwr_ctrl.o)
 .ARM.attributes
                0x00001287       0x33 contiki-srf06-cc26xx.a(setup.o)
 .ARM.attributes
                0x000012ba       0x33 contiki-srf06-cc26xx.a(sys_ctrl.o)
 .ARM.attributes
                0x000012ed       0x33 contiki-srf06-cc26xx.a(linkaddr.o)
 .ARM.attributes
                0x00001320       0x33 contiki-srf06-cc26xx.a(nbr-table.o)
 .ARM.attributes
                0x00001353       0x33 contiki-srf06-cc26xx.a(netstack.o)
 .ARM.attributes
                0x00001386       0x33 contiki-srf06-cc26xx.a(packetbuf.o)
 .ARM.attributes
                0x000013b9       0x33 contiki-srf06-cc26xx.a(queuebuf.o)
 .ARM.attributes
                0x000013ec       0x33 contiki-srf06-cc26xx.a(csma.o)
 .ARM.attributes
                0x0000141f       0x33 contiki-srf06-cc26xx.a(framer-802154.o)
 .ARM.attributes
                0x00001452       0x33 contiki-srf06-cc26xx.a(mac.o)
 .ARM.attributes
                0x00001485       0x33 contiki-srf06-cc26xx.a(contikimac.o)
 .ARM.attributes
                0x000014b8       0x33 contiki-srf06-cc26xx.a(nullsec.o)
 .ARM.attributes
                0x000014eb       0x33 contiki-srf06-cc26xx.a(er-coap.o)
 .ARM.attributes
                0x0000151e       0x33 contiki-srf06-cc26xx.a(sensor-common.o)
 .ARM.attributes
                0x00001551       0x33 contiki-srf06-cc26xx.a(rf-core.o)
 .ARM.attributes
                0x00001584       0x33 contiki-srf06-cc26xx.a(stimer.o)
 .ARM.attributes
                0x000015b7       0x33 contiki-srf06-cc26xx.a(frame802154.o)
 .ARM.attributes
                0x000015ea       0x33 contiki-srf06-cc26xx.a(mac-sequence.o)
 .ARM.attributes
                0x0000161d       0x2d /home/paul/gcc-arm-none-eabi-5_2-2015q4/bin/../lib/gcc/arm-none-eabi/5.2.1/../../../../arm-none-eabi/lib/armv7-m/libm.a(lib_a-w_exp2.o)
 .ARM.attributes
                0x0000164a       0x2d /home/paul/gcc-arm-none-eabi-5_2-2015q4/bin/../lib/gcc/arm-none-eabi/5.2.1/../../../../arm-none-eabi/lib/armv7-m/libm.a(lib_a-w_pow.o)
 .ARM.attributes
                0x00001677       0x2d /home/paul/gcc-arm-none-eabi-5_2-2015q4/bin/../lib/gcc/arm-none-eabi/5.2.1/../../../../arm-none-eabi/lib/armv7-m/libm.a(lib_a-e_pow.o)
 .ARM.attributes
                0x000016a4       0x2d /home/paul/gcc-arm-none-eabi-5_2-2015q4/bin/../lib/gcc/arm-none-eabi/5.2.1/../../../../arm-none-eabi/lib/armv7-m/libm.a(lib_a-e_sqrt.o)
 .ARM.attributes
                0x000016d1       0x2d /home/paul/gcc-arm-none-eabi-5_2-2015q4/bin/../lib/gcc/arm-none-eabi/5.2.1/../../../../arm-none-eabi/lib/armv7-m/libm.a(lib_a-s_fabs.o)
 .ARM.attributes
                0x000016fe       0x2d /home/paul/gcc-arm-none-eabi-5_2-2015q4/bin/../lib/gcc/arm-none-eabi/5.2.1/../../../../arm-none-eabi/lib/armv7-m/libm.a(lib_a-s_finite.o)
 .ARM.attributes
                0x0000172b       0x2d /home/paul/gcc-arm-none-eabi-5_2-2015q4/bin/../lib/gcc/arm-none-eabi/5.2.1/../../../../arm-none-eabi/lib/armv7-m/libm.a(lib_a-s_fpclassify.o)
 .ARM.attributes
                0x00001758       0x2d /home/paul/gcc-arm-none-eabi-5_2-2015q4/bin/../lib/gcc/arm-none-eabi/5.2.1/../../../../arm-none-eabi/lib/armv7-m/libm.a(lib_a-s_lib_ver.o)
 .ARM.attributes
                0x00001785       0x2d /home/paul/gcc-arm-none-eabi-5_2-2015q4/bin/../lib/gcc/arm-none-eabi/5.2.1/../../../../arm-none-eabi/lib/armv7-m/libm.a(lib_a-s_matherr.o)
 .ARM.attributes
                0x000017b2       0x2d /home/paul/gcc-arm-none-eabi-5_2-2015q4/bin/../lib/gcc/arm-none-eabi/5.2.1/../../../../arm-none-eabi/lib/armv7-m/libm.a(lib_a-s_nan.o)
 .ARM.attributes
                0x000017df       0x2d /home/paul/gcc-arm-none-eabi-5_2-2015q4/bin/../lib/gcc/arm-none-eabi/5.2.1/../../../../arm-none-eabi/lib/armv7-m/libm.a(lib_a-s_rint.o)
 .ARM.attributes
                0x0000180c       0x2d /home/paul/gcc-arm-none-eabi-5_2-2015q4/bin/../lib/gcc/arm-none-eabi/5.2.1/../../../../arm-none-eabi/lib/armv7-m/libm.a(lib_a-s_scalbn.o)
 .ARM.attributes
                0x00001839       0x2d /home/paul/gcc-arm-none-eabi-5_2-2015q4/bin/../lib/gcc/arm-none-eabi/5.2.1/../../../../arm-none-eabi/lib/armv7-m/libm.a(lib_a-s_copysign.o)
 .ARM.attributes
                0x00001866       0x1d /home/paul/gcc-arm-none-eabi-5_2-2015q4/bin/../lib/gcc/arm-none-eabi/5.2.1/armv7-m/libgcc.a(_arm_addsubdf3.o)
 .ARM.attributes
                0x00001883       0x1d /home/paul/gcc-arm-none-eabi-5_2-2015q4/bin/../lib/gcc/arm-none-eabi/5.2.1/armv7-m/libgcc.a(_arm_muldivdf3.o)
 .ARM.attributes
                0x000018a0       0x1d /home/paul/gcc-arm-none-eabi-5_2-2015q4/bin/../lib/gcc/arm-none-eabi/5.2.1/armv7-m/libgcc.a(_arm_cmpdf2.o)
 .ARM.attributes
                0x000018bd       0x1d /home/paul/gcc-arm-none-eabi-5_2-2015q4/bin/../lib/gcc/arm-none-eabi/5.2.1/armv7-m/libgcc.a(_arm_truncdfsf2.o)
 .ARM.attributes
                0x000018da       0x1d /home/paul/gcc-arm-none-eabi-5_2-2015q4/bin/../lib/gcc/arm-none-eabi/5.2.1/armv7-m/libgcc.a(_arm_addsubsf3.o)
 .ARM.attributes
                0x000018f7       0x1d /home/paul/gcc-arm-none-eabi-5_2-2015q4/bin/../lib/gcc/arm-none-eabi/5.2.1/armv7-m/libgcc.a(_arm_muldivsf3.o)
 .ARM.attributes
                0x00001914       0x1d /home/paul/gcc-arm-none-eabi-5_2-2015q4/bin/../lib/gcc/arm-none-eabi/5.2.1/armv7-m/libgcc.a(_arm_fixsfsi.o)
 .ARM.attributes
                0x00001931       0x1d /home/paul/gcc-arm-none-eabi-5_2-2015q4/bin/../lib/gcc/arm-none-eabi/5.2.1/armv7-m/libgcc.a(_aeabi_uldivmod.o)
 .ARM.attributes
                0x0000194e       0x2d /home/paul/gcc-arm-none-eabi-5_2-2015q4/bin/../lib/gcc/arm-none-eabi/5.2.1/armv7-m/libgcc.a(_udivmoddi4.o)
 .ARM.attributes
                0x0000197b       0x1d /home/paul/gcc-arm-none-eabi-5_2-2015q4/bin/../lib/gcc/arm-none-eabi/5.2.1/armv7-m/libgcc.a(_dvmd_tls.o)
 .ARM.attributes
                0x00001998       0x2d /home/paul/gcc-arm-none-eabi-5_2-2015q4/bin/../lib/gcc/arm-none-eabi/5.2.1/../../../../arm-none-eabi/lib/armv7-m/libc.a(lib_a-atoi.o)
 .ARM.attributes
                0x000019c5       0x2d /home/paul/gcc-arm-none-eabi-5_2-2015q4/bin/../lib/gcc/arm-none-eabi/5.2.1/../../../../arm-none-eabi/lib/armv7-m/libc.a(lib_a-ctype_.o)
 .ARM.attributes
                0x000019f2       0x2d /home/paul/gcc-arm-none-eabi-5_2-2015q4/bin/../lib/gcc/arm-none-eabi/5.2.1/../../../../arm-none-eabi/lib/armv7-m/libc.a(lib_a-errno.o)
 .ARM.attributes
                0x00001a1f       0x2d /home/paul/gcc-arm-none-eabi-5_2-2015q4/bin/../lib/gcc/arm-none-eabi/5.2.1/../../../../arm-none-eabi/lib/armv7-m/libc.a(lib_a-impure.o)
 .ARM.attributes
                0x00001a4c       0x2d /home/paul/gcc-arm-none-eabi-5_2-2015q4/bin/../lib/gcc/arm-none-eabi/5.2.1/../../../../arm-none-eabi/lib/armv7-m/libc.a(lib_a-memchr-stub.o)
 .ARM.attributes
                0x00001a79       0x2d /home/paul/gcc-arm-none-eabi-5_2-2015q4/bin/../lib/gcc/arm-none-eabi/5.2.1/../../../../arm-none-eabi/lib/armv7-m/libc.a(lib_a-memcmp.o)
 .ARM.attributes
                0x00001aa6       0x1b /home/paul/gcc-arm-none-eabi-5_2-2015q4/bin/../lib/gcc/arm-none-eabi/5.2.1/../../../../arm-none-eabi/lib/armv7-m/libc.a(lib_a-memcpy.o)
 .ARM.attributes
                0x00001ac1       0x2d /home/paul/gcc-arm-none-eabi-5_2-2015q4/bin/../lib/gcc/arm-none-eabi/5.2.1/../../../../arm-none-eabi/lib/armv7-m/libc.a(lib_a-memmove.o)
 .ARM.attributes
                0x00001aee       0x2d /home/paul/gcc-arm-none-eabi-5_2-2015q4/bin/../lib/gcc/arm-none-eabi/5.2.1/../../../../arm-none-eabi/lib/armv7-m/libc.a(lib_a-memset.o)
 .ARM.attributes
                0x00001b1b       0x2d /home/paul/gcc-arm-none-eabi-5_2-2015q4/bin/../lib/gcc/arm-none-eabi/5.2.1/../../../../arm-none-eabi/lib/armv7-m/libc.a(lib_a-rand.o)
 .ARM.attributes
                0x00001b48       0x2d /home/paul/gcc-arm-none-eabi-5_2-2015q4/bin/../lib/gcc/arm-none-eabi/5.2.1/../../../../arm-none-eabi/lib/armv7-m/libc.a(lib_a-strchr.o)
 .ARM.attributes
                0x00001b75       0x2d /home/paul/gcc-arm-none-eabi-5_2-2015q4/bin/../lib/gcc/arm-none-eabi/5.2.1/../../../../arm-none-eabi/lib/armv7-m/libc.a(lib_a-strlen-stub.o)
 .ARM.attributes
                0x00001ba2       0x2d /home/paul/gcc-arm-none-eabi-5_2-2015q4/bin/../lib/gcc/arm-none-eabi/5.2.1/../../../../arm-none-eabi/lib/armv7-m/libc.a(lib_a-strncasecmp.o)
 .ARM.attributes
                0x00001bcf       0x2d /home/paul/gcc-arm-none-eabi-5_2-2015q4/bin/../lib/gcc/arm-none-eabi/5.2.1/../../../../arm-none-eabi/lib/armv7-m/libc.a(lib_a-strncmp.o)
 .ARM.attributes
                0x00001bfc       0x2d /home/paul/gcc-arm-none-eabi-5_2-2015q4/bin/../lib/gcc/arm-none-eabi/5.2.1/../../../../arm-none-eabi/lib/armv7-m/libc.a(lib_a-strncpy.o)
 .ARM.attributes
                0x00001c29       0x2d /home/paul/gcc-arm-none-eabi-5_2-2015q4/bin/../lib/gcc/arm-none-eabi/5.2.1/../../../../arm-none-eabi/lib/armv7-m/libc.a(lib_a-strtol.o)

.debug_frame    0x00000000      0x578
 .debug_frame   0x00000000       0x20 /home/paul/gcc-arm-none-eabi-5_2-2015q4/bin/../lib/gcc/arm-none-eabi/5.2.1/../../../../arm-none-eabi/lib/armv7-m/libm.a(lib_a-w_exp2.o)
 .debug_frame   0x00000020       0x40 /home/paul/gcc-arm-none-eabi-5_2-2015q4/bin/../lib/gcc/arm-none-eabi/5.2.1/../../../../arm-none-eabi/lib/armv7-m/libm.a(lib_a-w_pow.o)
 .debug_frame   0x00000060       0x68 /home/paul/gcc-arm-none-eabi-5_2-2015q4/bin/../lib/gcc/arm-none-eabi/5.2.1/../../../../arm-none-eabi/lib/armv7-m/libm.a(lib_a-e_pow.o)
 .debug_frame   0x000000c8       0x30 /home/paul/gcc-arm-none-eabi-5_2-2015q4/bin/../lib/gcc/arm-none-eabi/5.2.1/../../../../arm-none-eabi/lib/armv7-m/libm.a(lib_a-e_sqrt.o)
 .debug_frame   0x000000f8       0x20 /home/paul/gcc-arm-none-eabi-5_2-2015q4/bin/../lib/gcc/arm-none-eabi/5.2.1/../../../../arm-none-eabi/lib/armv7-m/libm.a(lib_a-s_fabs.o)
 .debug_frame   0x00000118       0x20 /home/paul/gcc-arm-none-eabi-5_2-2015q4/bin/../lib/gcc/arm-none-eabi/5.2.1/../../../../arm-none-eabi/lib/armv7-m/libm.a(lib_a-s_finite.o)
 .debug_frame   0x00000138       0x34 /home/paul/gcc-arm-none-eabi-5_2-2015q4/bin/../lib/gcc/arm-none-eabi/5.2.1/../../../../arm-none-eabi/lib/armv7-m/libm.a(lib_a-s_fpclassify.o)
 .debug_frame   0x0000016c       0x20 /home/paul/gcc-arm-none-eabi-5_2-2015q4/bin/../lib/gcc/arm-none-eabi/5.2.1/../../../../arm-none-eabi/lib/armv7-m/libm.a(lib_a-s_matherr.o)
 .debug_frame   0x0000018c       0x20 /home/paul/gcc-arm-none-eabi-5_2-2015q4/bin/../lib/gcc/arm-none-eabi/5.2.1/../../../../arm-none-eabi/lib/armv7-m/libm.a(lib_a-s_nan.o)
 .debug_frame   0x000001ac       0x3c /home/paul/gcc-arm-none-eabi-5_2-2015q4/bin/../lib/gcc/arm-none-eabi/5.2.1/../../../../arm-none-eabi/lib/armv7-m/libm.a(lib_a-s_rint.o)
 .debug_frame   0x000001e8       0x30 /home/paul/gcc-arm-none-eabi-5_2-2015q4/bin/../lib/gcc/arm-none-eabi/5.2.1/../../../../arm-none-eabi/lib/armv7-m/libm.a(lib_a-s_scalbn.o)
 .debug_frame   0x00000218       0x20 /home/paul/gcc-arm-none-eabi-5_2-2015q4/bin/../lib/gcc/arm-none-eabi/5.2.1/../../../../arm-none-eabi/lib/armv7-m/libm.a(lib_a-s_copysign.o)
 .debug_frame   0x00000238       0x2c /home/paul/gcc-arm-none-eabi-5_2-2015q4/bin/../lib/gcc/arm-none-eabi/5.2.1/armv7-m/libgcc.a(_aeabi_uldivmod.o)
 .debug_frame   0x00000264       0x38 /home/paul/gcc-arm-none-eabi-5_2-2015q4/bin/../lib/gcc/arm-none-eabi/5.2.1/armv7-m/libgcc.a(_udivmoddi4.o)
 .debug_frame   0x0000029c       0x30 /home/paul/gcc-arm-none-eabi-5_2-2015q4/bin/../lib/gcc/arm-none-eabi/5.2.1/../../../../arm-none-eabi/lib/armv7-m/libc.a(lib_a-atoi.o)
 .debug_frame   0x000002cc       0x20 /home/paul/gcc-arm-none-eabi-5_2-2015q4/bin/../lib/gcc/arm-none-eabi/5.2.1/../../../../arm-none-eabi/lib/armv7-m/libc.a(lib_a-errno.o)
 .debug_frame   0x000002ec       0x34 /home/paul/gcc-arm-none-eabi-5_2-2015q4/bin/../lib/gcc/arm-none-eabi/5.2.1/../../../../arm-none-eabi/lib/armv7-m/libc.a(lib_a-memchr-stub.o)
 .debug_frame   0x00000320       0x38 /home/paul/gcc-arm-none-eabi-5_2-2015q4/bin/../lib/gcc/arm-none-eabi/5.2.1/../../../../arm-none-eabi/lib/armv7-m/libc.a(lib_a-memcmp.o)
 .debug_frame   0x00000358       0x30 /home/paul/gcc-arm-none-eabi-5_2-2015q4/bin/../lib/gcc/arm-none-eabi/5.2.1/../../../../arm-none-eabi/lib/armv7-m/libc.a(lib_a-memmove.o)
 .debug_frame   0x00000388       0x34 /home/paul/gcc-arm-none-eabi-5_2-2015q4/bin/../lib/gcc/arm-none-eabi/5.2.1/../../../../arm-none-eabi/lib/armv7-m/libc.a(lib_a-memset.o)
 .debug_frame   0x000003bc       0x3c /home/paul/gcc-arm-none-eabi-5_2-2015q4/bin/../lib/gcc/arm-none-eabi/5.2.1/../../../../arm-none-eabi/lib/armv7-m/libc.a(lib_a-rand.o)
 .debug_frame   0x000003f8       0x4c /home/paul/gcc-arm-none-eabi-5_2-2015q4/bin/../lib/gcc/arm-none-eabi/5.2.1/../../../../arm-none-eabi/lib/armv7-m/libc.a(lib_a-strchr.o)
 .debug_frame   0x00000444       0x20 /home/paul/gcc-arm-none-eabi-5_2-2015q4/bin/../lib/gcc/arm-none-eabi/5.2.1/../../../../arm-none-eabi/lib/armv7-m/libc.a(lib_a-strlen-stub.o)
 .debug_frame   0x00000464       0x38 /home/paul/gcc-arm-none-eabi-5_2-2015q4/bin/../lib/gcc/arm-none-eabi/5.2.1/../../../../arm-none-eabi/lib/armv7-m/libc.a(lib_a-strncasecmp.o)
 .debug_frame   0x0000049c       0x54 /home/paul/gcc-arm-none-eabi-5_2-2015q4/bin/../lib/gcc/arm-none-eabi/5.2.1/../../../../arm-none-eabi/lib/armv7-m/libc.a(lib_a-strncmp.o)
 .debug_frame   0x000004f0       0x34 /home/paul/gcc-arm-none-eabi-5_2-2015q4/bin/../lib/gcc/arm-none-eabi/5.2.1/../../../../arm-none-eabi/lib/armv7-m/libc.a(lib_a-strncpy.o)
 .debug_frame   0x00000524       0x54 /home/paul/gcc-arm-none-eabi-5_2-2015q4/bin/../lib/gcc/arm-none-eabi/5.2.1/../../../../arm-none-eabi/lib/armv7-m/libc.a(lib_a-strtol.o)

Cross Reference Table

Symbol                                            File
AONBatMonTemperatureGetDegC                       contiki-srf06-cc26xx.a(aon_batmon.o)
                                                  contiki-srf06-cc26xx.a(sys_ctrl.o)
                                                  contiki-srf06-cc26xx.a(osc.o)
                                                  contiki-srf06-cc26xx.a(batmon-sensor.o)
AONIntHandler                                     obj_srf06-cc26xx/startup_gcc.o
AONProgIntHandler                                 obj_srf06-cc26xx/startup_gcc.o
AONRTCIntHandler                                  contiki-srf06-cc26xx.a(soc-rtc.o)
                                                  obj_srf06-cc26xx/startup_gcc.o
AUXADCIntHandler                                  obj_srf06-cc26xx/startup_gcc.o
AUXCombEventIntHandler                            obj_srf06-cc26xx/startup_gcc.o
AUXCompAIntHandler                                obj_srf06-cc26xx/startup_gcc.o
AUXSWEvent0IntHandler                             obj_srf06-cc26xx/startup_gcc.o
AUXSWEvent1IntHandler                             obj_srf06-cc26xx/startup_gcc.o
BusFaultIntHandler                                obj_srf06-cc26xx/startup_gcc.o
ChipInfo_GetChipFamily                            contiki-srf06-cc26xx.a(chipinfo.o)
                                                  contiki-srf06-cc26xx.a(rf-core.o)
                                                  obj_srf06-cc26xx/res-device.o
ChipInfo_GetHwRevision                            contiki-srf06-cc26xx.a(chipinfo.o)
ChipInfo_GetPackageType                           contiki-srf06-cc26xx.a(chipinfo.o)
ChipInfo_GetSupportedProtocol_BV                  contiki-srf06-cc26xx.a(chipinfo.o)
                                                  contiki-srf06-cc26xx.a(rf-core.o)
                                                  contiki-srf06-cc26xx.a(rf-ble.o)
                                                  obj_srf06-cc26xx/res-device.o
CryptoIntHandler                                  obj_srf06-cc26xx/startup_gcc.o
DebugMonIntHandler                                obj_srf06-cc26xx/startup_gcc.o
DynProgIntHandler                                 obj_srf06-cc26xx/startup_gcc.o
FaultISR                                          obj_srf06-cc26xx/fault-handlers.o
FlashIntHandler                                   obj_srf06-cc26xx/startup_gcc.o
GPIOIntHandler                                    contiki-srf06-cc26xx.a(gpio-interrupt.)
                                                  obj_srf06-cc26xx/startup_gcc.o
I2CIntHandler                                     obj_srf06-cc26xx/startup_gcc.o
I2SIntHandler                                     obj_srf06-cc26xx/startup_gcc.o
MPUFaultIntHandler                                obj_srf06-cc26xx/startup_gcc.o
NOROM_AONRTCCurrent64BitValueGet                  contiki-srf06-cc26xx.a(aon_rtc.o)
NOROM_AONRTCCurrentCompareValueGet                contiki-srf06-cc26xx.a(aon_rtc.o)
                                                  contiki-srf06-cc26xx.a(osc.o)
                                                  contiki-srf06-cc26xx.a(soc-rtc.o)
                                                  contiki-srf06-cc26xx.a(rtimer-arch.o)
NOROM_CPUbasepriGet                               contiki-srf06-cc26xx.a(cpu.o)
NOROM_CPUcpsid                                    contiki-srf06-cc26xx.a(cpu.o)
                                                  contiki-srf06-cc26xx.a(rf-core.o)
                                                  contiki-srf06-cc26xx.a(setup.o)
                                                  contiki-srf06-cc26xx.a(ddi.o)
                                                  contiki-srf06-cc26xx.a(rf-ble.o)
                                                  contiki-srf06-cc26xx.a(gpio-interrupt.)
                                                  contiki-srf06-cc26xx.a(lpm.o)
                                                  contiki-srf06-cc26xx.a(cc26xx-uart.o)
                                                  contiki-srf06-cc26xx.a(contiki-watchdo)
                                                  contiki-srf06-cc26xx.a(soc-rtc.o)
                                                  contiki-srf06-cc26xx.a(clock.o)
                                                  contiki-srf06-cc26xx.a(board.o)
                                                  contiki-srf06-cc26xx.a(contiki-main.o)
NOROM_CPUcpsie                                    contiki-srf06-cc26xx.a(cpu.o)
                                                  contiki-srf06-cc26xx.a(rf-core.o)
                                                  contiki-srf06-cc26xx.a(setup.o)
                                                  contiki-srf06-cc26xx.a(ddi.o)
                                                  contiki-srf06-cc26xx.a(rf-ble.o)
                                                  contiki-srf06-cc26xx.a(gpio-interrupt.)
                                                  contiki-srf06-cc26xx.a(lpm.o)
                                                  contiki-srf06-cc26xx.a(cc26xx-uart.o)
                                                  contiki-srf06-cc26xx.a(contiki-watchdo)
                                                  contiki-srf06-cc26xx.a(soc-rtc.o)
                                                  contiki-srf06-cc26xx.a(clock.o)
                                                  contiki-srf06-cc26xx.a(board.o)
                                                  contiki-srf06-cc26xx.a(contiki-main.o)
NOROM_CPUdelay                                    contiki-srf06-cc26xx.a(cpu.o)
                                                  contiki-srf06-cc26xx.a(board-i2c.o)
                                                  contiki-srf06-cc26xx.a(mpu-9250-sensor)
NOROM_CPUprimask                                  contiki-srf06-cc26xx.a(cpu.o)
NOROM_DDI16BitRead                                contiki-srf06-cc26xx.a(ddi.o)
NOROM_DDI16BitWrite                               contiki-srf06-cc26xx.a(ddi.o)
NOROM_DDI16BitfieldRead                           contiki-srf06-cc26xx.a(ddi.o)
                                                  contiki-srf06-cc26xx.a(osc.o)
NOROM_DDI16BitfieldWrite                          contiki-srf06-cc26xx.a(ddi.o)
                                                  contiki-srf06-cc26xx.a(setup.o)
                                                  contiki-srf06-cc26xx.a(osc.o)
                                                  contiki-srf06-cc26xx.a(oscillators.o)
NOROM_OSCClockSourceGet                           contiki-srf06-cc26xx.a(osc.o)
                                                  contiki-srf06-cc26xx.a(sys_ctrl.o)
                                                  contiki-srf06-cc26xx.a(setup.o)
                                                  contiki-srf06-cc26xx.a(oscillators.o)
NOROM_OSCClockSourceSet                           contiki-srf06-cc26xx.a(osc.o)
                                                  contiki-srf06-cc26xx.a(sys_ctrl.o)
                                                  contiki-srf06-cc26xx.a(setup.o)
                                                  contiki-srf06-cc26xx.a(oscillators.o)
NOROM_OSCInterfaceEnable                          contiki-srf06-cc26xx.a(osc.o)
                                                  contiki-srf06-cc26xx.a(sys_ctrl.o)
                                                  contiki-srf06-cc26xx.a(oscillators.o)
NOROM_PowerCtrlSourceSet                          contiki-srf06-cc26xx.a(pwr_ctrl.o)
                                                  contiki-srf06-cc26xx.a(lpm.o)
NOROM_PowerCtrlStateSet                           contiki-srf06-cc26xx.a(pwr_ctrl.o)
                                                  contiki-srf06-cc26xx.a(sys_ctrl.o)
NOROM_SysCtrlPowerEverything                      contiki-srf06-cc26xx.a(sys_ctrl.o)
NOROM_SysCtrlPowerdown                            contiki-srf06-cc26xx.a(sys_ctrl.o)
NOROM_SysCtrlResetSourceGet                       contiki-srf06-cc26xx.a(sys_ctrl.o)
NOROM_SysCtrlShutdown                             contiki-srf06-cc26xx.a(sys_ctrl.o)
NOROM_SysCtrlStandby                              contiki-srf06-cc26xx.a(sys_ctrl.o)
NmiSR                                             obj_srf06-cc26xx/startup_gcc.o
OSCHF_AttemptToSwitchToXosc                       contiki-srf06-cc26xx.a(osc.o)
OSCHF_GetStartupTime                              contiki-srf06-cc26xx.a(osc.o)
OSCHF_SwitchToRcOscTurnOffXosc                    contiki-srf06-cc26xx.a(osc.o)
OSCHF_TurnOnXosc                                  contiki-srf06-cc26xx.a(osc.o)
PendSVIntHandler                                  obj_srf06-cc26xx/startup_gcc.o
RFCCPE0IntHandler                                 contiki-srf06-cc26xx.a(rf-core.o)
                                                  obj_srf06-cc26xx/startup_gcc.o
RFCCPE1IntHandler                                 contiki-srf06-cc26xx.a(rf-core.o)
                                                  obj_srf06-cc26xx/startup_gcc.o
RFCCmdAckIntHandler                               obj_srf06-cc26xx/startup_gcc.o
RFCHardwareIntHandler                             obj_srf06-cc26xx/startup_gcc.o
ResetISR                                          obj_srf06-cc26xx/startup_gcc.o
SSI0IntHandler                                    obj_srf06-cc26xx/startup_gcc.o
SSI1IntHandler                                    obj_srf06-cc26xx/startup_gcc.o
SVCallIntHandler                                  obj_srf06-cc26xx/startup_gcc.o
SWEvent0IntHandler                                obj_srf06-cc26xx/startup_gcc.o
SysCtrlAdjustRechargeAfterPowerDown               contiki-srf06-cc26xx.a(sys_ctrl.o)
                                                  contiki-srf06-cc26xx.a(lpm.o)
SysCtrlSetRechargeBeforePowerDown                 contiki-srf06-cc26xx.a(sys_ctrl.o)
                                                  contiki-srf06-cc26xx.a(lpm.o)
SysCtrl_DCDC_VoltageConditionalControl            contiki-srf06-cc26xx.a(sys_ctrl.o)
                                                  contiki-srf06-cc26xx.a(lpm.o)
SysTickIntHandler                                 obj_srf06-cc26xx/startup_gcc.o
TRNGIntHandler                                    obj_srf06-cc26xx/startup_gcc.o
ThisCodeIsBuiltForCC26xxHwRev22AndLater_HaltIfViolated contiki-srf06-cc26xx.a(chipinfo.o)
                                                  contiki-srf06-cc26xx.a(setup.o)
Timer0AIntHandler                                 obj_srf06-cc26xx/startup_gcc.o
Timer0BIntHandler                                 obj_srf06-cc26xx/startup_gcc.o
Timer1AIntHandler                                 obj_srf06-cc26xx/startup_gcc.o
Timer1BIntHandler                                 obj_srf06-cc26xx/startup_gcc.o
Timer2AIntHandler                                 obj_srf06-cc26xx/startup_gcc.o
Timer2BIntHandler                                 obj_srf06-cc26xx/startup_gcc.o
Timer3AIntHandler                                 obj_srf06-cc26xx/startup_gcc.o
Timer3BIntHandler                                 obj_srf06-cc26xx/startup_gcc.o
UART0IntHandler                                   contiki-srf06-cc26xx.a(cc26xx-uart.o)
                                                  obj_srf06-cc26xx/startup_gcc.o
UsageFaultIntHandler                              obj_srf06-cc26xx/startup_gcc.o
WatchdogIntHandler                                obj_srf06-cc26xx/startup_gcc.o
__adddf3                                          /home/paul/gcc-arm-none-eabi-5_2-2015q4/bin/../lib/gcc/arm-none-eabi/5.2.1/armv7-m/libgcc.a(_arm_addsubdf3.o)
__addsf3                                          /home/paul/gcc-arm-none-eabi-5_2-2015q4/bin/../lib/gcc/arm-none-eabi/5.2.1/armv7-m/libgcc.a(_arm_addsubsf3.o)
__aeabi_cdcmpeq                                   /home/paul/gcc-arm-none-eabi-5_2-2015q4/bin/../lib/gcc/arm-none-eabi/5.2.1/armv7-m/libgcc.a(_arm_cmpdf2.o)
__aeabi_cdcmple                                   /home/paul/gcc-arm-none-eabi-5_2-2015q4/bin/../lib/gcc/arm-none-eabi/5.2.1/armv7-m/libgcc.a(_arm_cmpdf2.o)
__aeabi_cdrcmple                                  /home/paul/gcc-arm-none-eabi-5_2-2015q4/bin/../lib/gcc/arm-none-eabi/5.2.1/armv7-m/libgcc.a(_arm_cmpdf2.o)
__aeabi_d2f                                       /home/paul/gcc-arm-none-eabi-5_2-2015q4/bin/../lib/gcc/arm-none-eabi/5.2.1/armv7-m/libgcc.a(_arm_truncdfsf2.o)
                                                  contiki-srf06-cc26xx.a(mpu-9250-sensor)
                                                  contiki-srf06-cc26xx.a(hdc-1000-sensor)
                                                  contiki-srf06-cc26xx.a(opt-3001-sensor)
__aeabi_dadd                                      /home/paul/gcc-arm-none-eabi-5_2-2015q4/bin/../lib/gcc/arm-none-eabi/5.2.1/armv7-m/libgcc.a(_arm_addsubdf3.o)
                                                  /home/paul/gcc-arm-none-eabi-5_2-2015q4/bin/../lib/gcc/arm-none-eabi/5.2.1/../../../../arm-none-eabi/lib/armv7-m/libm.a(lib_a-s_scalbn.o)
                                                  /home/paul/gcc-arm-none-eabi-5_2-2015q4/bin/../lib/gcc/arm-none-eabi/5.2.1/../../../../arm-none-eabi/lib/armv7-m/libm.a(lib_a-s_rint.o)
                                                  /home/paul/gcc-arm-none-eabi-5_2-2015q4/bin/../lib/gcc/arm-none-eabi/5.2.1/../../../../arm-none-eabi/lib/armv7-m/libm.a(lib_a-e_sqrt.o)
                                                  /home/paul/gcc-arm-none-eabi-5_2-2015q4/bin/../lib/gcc/arm-none-eabi/5.2.1/../../../../arm-none-eabi/lib/armv7-m/libm.a(lib_a-e_pow.o)
__aeabi_dcmpeq                                    /home/paul/gcc-arm-none-eabi-5_2-2015q4/bin/../lib/gcc/arm-none-eabi/5.2.1/armv7-m/libgcc.a(_arm_cmpdf2.o)
                                                  /home/paul/gcc-arm-none-eabi-5_2-2015q4/bin/../lib/gcc/arm-none-eabi/5.2.1/../../../../arm-none-eabi/lib/armv7-m/libm.a(lib_a-w_pow.o)
__aeabi_dcmpge                                    /home/paul/gcc-arm-none-eabi-5_2-2015q4/bin/../lib/gcc/arm-none-eabi/5.2.1/armv7-m/libgcc.a(_arm_cmpdf2.o)
__aeabi_dcmpgt                                    /home/paul/gcc-arm-none-eabi-5_2-2015q4/bin/../lib/gcc/arm-none-eabi/5.2.1/armv7-m/libgcc.a(_arm_cmpdf2.o)
                                                  /home/paul/gcc-arm-none-eabi-5_2-2015q4/bin/../lib/gcc/arm-none-eabi/5.2.1/../../../../arm-none-eabi/lib/armv7-m/libm.a(lib_a-e_pow.o)
__aeabi_dcmple                                    /home/paul/gcc-arm-none-eabi-5_2-2015q4/bin/../lib/gcc/arm-none-eabi/5.2.1/armv7-m/libgcc.a(_arm_cmpdf2.o)
                                                  /home/paul/gcc-arm-none-eabi-5_2-2015q4/bin/../lib/gcc/arm-none-eabi/5.2.1/../../../../arm-none-eabi/lib/armv7-m/libm.a(lib_a-e_pow.o)
__aeabi_dcmplt                                    /home/paul/gcc-arm-none-eabi-5_2-2015q4/bin/../lib/gcc/arm-none-eabi/5.2.1/armv7-m/libgcc.a(_arm_cmpdf2.o)
                                                  /home/paul/gcc-arm-none-eabi-5_2-2015q4/bin/../lib/gcc/arm-none-eabi/5.2.1/../../../../arm-none-eabi/lib/armv7-m/libm.a(lib_a-w_pow.o)
__aeabi_ddiv                                      /home/paul/gcc-arm-none-eabi-5_2-2015q4/bin/../lib/gcc/arm-none-eabi/5.2.1/armv7-m/libgcc.a(_arm_muldivdf3.o)
                                                  /home/paul/gcc-arm-none-eabi-5_2-2015q4/bin/../lib/gcc/arm-none-eabi/5.2.1/../../../../arm-none-eabi/lib/armv7-m/libm.a(lib_a-e_sqrt.o)
                                                  /home/paul/gcc-arm-none-eabi-5_2-2015q4/bin/../lib/gcc/arm-none-eabi/5.2.1/../../../../arm-none-eabi/lib/armv7-m/libm.a(lib_a-e_pow.o)
                                                  /home/paul/gcc-arm-none-eabi-5_2-2015q4/bin/../lib/gcc/arm-none-eabi/5.2.1/../../../../arm-none-eabi/lib/armv7-m/libm.a(lib_a-w_pow.o)
                                                  contiki-srf06-cc26xx.a(mpu-9250-sensor)
__aeabi_dmul                                      /home/paul/gcc-arm-none-eabi-5_2-2015q4/bin/../lib/gcc/arm-none-eabi/5.2.1/armv7-m/libgcc.a(_arm_muldivdf3.o)
                                                  /home/paul/gcc-arm-none-eabi-5_2-2015q4/bin/../lib/gcc/arm-none-eabi/5.2.1/../../../../arm-none-eabi/lib/armv7-m/libm.a(lib_a-s_scalbn.o)
                                                  /home/paul/gcc-arm-none-eabi-5_2-2015q4/bin/../lib/gcc/arm-none-eabi/5.2.1/../../../../arm-none-eabi/lib/armv7-m/libm.a(lib_a-e_sqrt.o)
                                                  /home/paul/gcc-arm-none-eabi-5_2-2015q4/bin/../lib/gcc/arm-none-eabi/5.2.1/../../../../arm-none-eabi/lib/armv7-m/libm.a(lib_a-e_pow.o)
                                                  /home/paul/gcc-arm-none-eabi-5_2-2015q4/bin/../lib/gcc/arm-none-eabi/5.2.1/../../../../arm-none-eabi/lib/armv7-m/libm.a(lib_a-w_pow.o)
                                                  contiki-srf06-cc26xx.a(mpu-9250-sensor)
                                                  contiki-srf06-cc26xx.a(hdc-1000-sensor)
                                                  contiki-srf06-cc26xx.a(opt-3001-sensor)
__aeabi_drsub                                     /home/paul/gcc-arm-none-eabi-5_2-2015q4/bin/../lib/gcc/arm-none-eabi/5.2.1/armv7-m/libgcc.a(_arm_addsubdf3.o)
__aeabi_dsub                                      /home/paul/gcc-arm-none-eabi-5_2-2015q4/bin/../lib/gcc/arm-none-eabi/5.2.1/armv7-m/libgcc.a(_arm_addsubdf3.o)
                                                  /home/paul/gcc-arm-none-eabi-5_2-2015q4/bin/../lib/gcc/arm-none-eabi/5.2.1/../../../../arm-none-eabi/lib/armv7-m/libm.a(lib_a-s_rint.o)
                                                  /home/paul/gcc-arm-none-eabi-5_2-2015q4/bin/../lib/gcc/arm-none-eabi/5.2.1/../../../../arm-none-eabi/lib/armv7-m/libm.a(lib_a-e_sqrt.o)
                                                  /home/paul/gcc-arm-none-eabi-5_2-2015q4/bin/../lib/gcc/arm-none-eabi/5.2.1/../../../../arm-none-eabi/lib/armv7-m/libm.a(lib_a-e_pow.o)
                                                  contiki-srf06-cc26xx.a(hdc-1000-sensor)
__aeabi_f2d                                       /home/paul/gcc-arm-none-eabi-5_2-2015q4/bin/../lib/gcc/arm-none-eabi/5.2.1/armv7-m/libgcc.a(_arm_addsubdf3.o)
__aeabi_f2iz                                      /home/paul/gcc-arm-none-eabi-5_2-2015q4/bin/../lib/gcc/arm-none-eabi/5.2.1/armv7-m/libgcc.a(_arm_fixsfsi.o)
                                                  contiki-srf06-cc26xx.a(mpu-9250-sensor)
                                                  contiki-srf06-cc26xx.a(hdc-1000-sensor)
                                                  contiki-srf06-cc26xx.a(opt-3001-sensor)
                                                  contiki-srf06-cc26xx.a(tmp-007-sensor.)
__aeabi_fadd                                      /home/paul/gcc-arm-none-eabi-5_2-2015q4/bin/../lib/gcc/arm-none-eabi/5.2.1/armv7-m/libgcc.a(_arm_addsubsf3.o)
__aeabi_fdiv                                      /home/paul/gcc-arm-none-eabi-5_2-2015q4/bin/../lib/gcc/arm-none-eabi/5.2.1/armv7-m/libgcc.a(_arm_muldivsf3.o)
__aeabi_fmul                                      /home/paul/gcc-arm-none-eabi-5_2-2015q4/bin/../lib/gcc/arm-none-eabi/5.2.1/armv7-m/libgcc.a(_arm_muldivsf3.o)
                                                  contiki-srf06-cc26xx.a(mpu-9250-sensor)
                                                  contiki-srf06-cc26xx.a(hdc-1000-sensor)
                                                  contiki-srf06-cc26xx.a(opt-3001-sensor)
                                                  contiki-srf06-cc26xx.a(tmp-007-sensor.)
__aeabi_frsub                                     /home/paul/gcc-arm-none-eabi-5_2-2015q4/bin/../lib/gcc/arm-none-eabi/5.2.1/armv7-m/libgcc.a(_arm_addsubsf3.o)
__aeabi_fsub                                      /home/paul/gcc-arm-none-eabi-5_2-2015q4/bin/../lib/gcc/arm-none-eabi/5.2.1/armv7-m/libgcc.a(_arm_addsubsf3.o)
__aeabi_i2d                                       /home/paul/gcc-arm-none-eabi-5_2-2015q4/bin/../lib/gcc/arm-none-eabi/5.2.1/armv7-m/libgcc.a(_arm_addsubdf3.o)
                                                  /home/paul/gcc-arm-none-eabi-5_2-2015q4/bin/../lib/gcc/arm-none-eabi/5.2.1/../../../../arm-none-eabi/lib/armv7-m/libm.a(lib_a-e_pow.o)
                                                  contiki-srf06-cc26xx.a(mpu-9250-sensor)
                                                  contiki-srf06-cc26xx.a(hdc-1000-sensor)
                                                  contiki-srf06-cc26xx.a(opt-3001-sensor)
__aeabi_i2f                                       /home/paul/gcc-arm-none-eabi-5_2-2015q4/bin/../lib/gcc/arm-none-eabi/5.2.1/armv7-m/libgcc.a(_arm_addsubsf3.o)
                                                  contiki-srf06-cc26xx.a(tmp-007-sensor.)
__aeabi_idiv0                                     /home/paul/gcc-arm-none-eabi-5_2-2015q4/bin/../lib/gcc/arm-none-eabi/5.2.1/armv7-m/libgcc.a(_dvmd_tls.o)
__aeabi_l2d                                       /home/paul/gcc-arm-none-eabi-5_2-2015q4/bin/../lib/gcc/arm-none-eabi/5.2.1/armv7-m/libgcc.a(_arm_addsubdf3.o)
__aeabi_l2f                                       /home/paul/gcc-arm-none-eabi-5_2-2015q4/bin/../lib/gcc/arm-none-eabi/5.2.1/armv7-m/libgcc.a(_arm_addsubsf3.o)
__aeabi_ldiv0                                     /home/paul/gcc-arm-none-eabi-5_2-2015q4/bin/../lib/gcc/arm-none-eabi/5.2.1/armv7-m/libgcc.a(_dvmd_tls.o)
                                                  /home/paul/gcc-arm-none-eabi-5_2-2015q4/bin/../lib/gcc/arm-none-eabi/5.2.1/armv7-m/libgcc.a(_aeabi_uldivmod.o)
__aeabi_ui2d                                      /home/paul/gcc-arm-none-eabi-5_2-2015q4/bin/../lib/gcc/arm-none-eabi/5.2.1/armv7-m/libgcc.a(_arm_addsubdf3.o)
                                                  contiki-srf06-cc26xx.a(hdc-1000-sensor)
                                                  contiki-srf06-cc26xx.a(opt-3001-sensor)
__aeabi_ui2f                                      /home/paul/gcc-arm-none-eabi-5_2-2015q4/bin/../lib/gcc/arm-none-eabi/5.2.1/armv7-m/libgcc.a(_arm_addsubsf3.o)
__aeabi_ul2d                                      /home/paul/gcc-arm-none-eabi-5_2-2015q4/bin/../lib/gcc/arm-none-eabi/5.2.1/armv7-m/libgcc.a(_arm_addsubdf3.o)
__aeabi_ul2f                                      /home/paul/gcc-arm-none-eabi-5_2-2015q4/bin/../lib/gcc/arm-none-eabi/5.2.1/armv7-m/libgcc.a(_arm_addsubsf3.o)
__aeabi_uldivmod                                  /home/paul/gcc-arm-none-eabi-5_2-2015q4/bin/../lib/gcc/arm-none-eabi/5.2.1/armv7-m/libgcc.a(_aeabi_uldivmod.o)
                                                  contiki-srf06-cc26xx.a(strformat.o)
__ccfg                                            obj_srf06-cc26xx/ccfg.o
__cmpdf2                                          /home/paul/gcc-arm-none-eabi-5_2-2015q4/bin/../lib/gcc/arm-none-eabi/5.2.1/armv7-m/libgcc.a(_arm_cmpdf2.o)
__ctype_ptr__                                     /home/paul/gcc-arm-none-eabi-5_2-2015q4/bin/../lib/gcc/arm-none-eabi/5.2.1/../../../../arm-none-eabi/lib/armv7-m/libc.a(lib_a-ctype_.o)
                                                  /home/paul/gcc-arm-none-eabi-5_2-2015q4/bin/../lib/gcc/arm-none-eabi/5.2.1/../../../../arm-none-eabi/lib/armv7-m/libc.a(lib_a-strtol.o)
                                                  /home/paul/gcc-arm-none-eabi-5_2-2015q4/bin/../lib/gcc/arm-none-eabi/5.2.1/../../../../arm-none-eabi/lib/armv7-m/libc.a(lib_a-strncasecmp.o)
                                                  obj_srf06-cc26xx/httpd-simple.o
__divdf3                                          /home/paul/gcc-arm-none-eabi-5_2-2015q4/bin/../lib/gcc/arm-none-eabi/5.2.1/armv7-m/libgcc.a(_arm_muldivdf3.o)
__divsf3                                          /home/paul/gcc-arm-none-eabi-5_2-2015q4/bin/../lib/gcc/arm-none-eabi/5.2.1/armv7-m/libgcc.a(_arm_muldivsf3.o)
__eqdf2                                           /home/paul/gcc-arm-none-eabi-5_2-2015q4/bin/../lib/gcc/arm-none-eabi/5.2.1/armv7-m/libgcc.a(_arm_cmpdf2.o)
__errno                                           /home/paul/gcc-arm-none-eabi-5_2-2015q4/bin/../lib/gcc/arm-none-eabi/5.2.1/../../../../arm-none-eabi/lib/armv7-m/libc.a(lib_a-errno.o)
                                                  /home/paul/gcc-arm-none-eabi-5_2-2015q4/bin/../lib/gcc/arm-none-eabi/5.2.1/../../../../arm-none-eabi/lib/armv7-m/libm.a(lib_a-w_pow.o)
__extendsfdf2                                     /home/paul/gcc-arm-none-eabi-5_2-2015q4/bin/../lib/gcc/arm-none-eabi/5.2.1/armv7-m/libgcc.a(_arm_addsubdf3.o)
__fdlib_version                                   /home/paul/gcc-arm-none-eabi-5_2-2015q4/bin/../lib/gcc/arm-none-eabi/5.2.1/../../../../arm-none-eabi/lib/armv7-m/libm.a(lib_a-s_lib_ver.o)
                                                  /home/paul/gcc-arm-none-eabi-5_2-2015q4/bin/../lib/gcc/arm-none-eabi/5.2.1/../../../../arm-none-eabi/lib/armv7-m/libm.a(lib_a-w_pow.o)
__fixsfsi                                         /home/paul/gcc-arm-none-eabi-5_2-2015q4/bin/../lib/gcc/arm-none-eabi/5.2.1/armv7-m/libgcc.a(_arm_fixsfsi.o)
__floatdidf                                       /home/paul/gcc-arm-none-eabi-5_2-2015q4/bin/../lib/gcc/arm-none-eabi/5.2.1/armv7-m/libgcc.a(_arm_addsubdf3.o)
__floatdisf                                       /home/paul/gcc-arm-none-eabi-5_2-2015q4/bin/../lib/gcc/arm-none-eabi/5.2.1/armv7-m/libgcc.a(_arm_addsubsf3.o)
__floatsidf                                       /home/paul/gcc-arm-none-eabi-5_2-2015q4/bin/../lib/gcc/arm-none-eabi/5.2.1/armv7-m/libgcc.a(_arm_addsubdf3.o)
__floatsisf                                       /home/paul/gcc-arm-none-eabi-5_2-2015q4/bin/../lib/gcc/arm-none-eabi/5.2.1/armv7-m/libgcc.a(_arm_addsubsf3.o)
__floatundidf                                     /home/paul/gcc-arm-none-eabi-5_2-2015q4/bin/../lib/gcc/arm-none-eabi/5.2.1/armv7-m/libgcc.a(_arm_addsubdf3.o)
__floatundisf                                     /home/paul/gcc-arm-none-eabi-5_2-2015q4/bin/../lib/gcc/arm-none-eabi/5.2.1/armv7-m/libgcc.a(_arm_addsubsf3.o)
__floatunsidf                                     /home/paul/gcc-arm-none-eabi-5_2-2015q4/bin/../lib/gcc/arm-none-eabi/5.2.1/armv7-m/libgcc.a(_arm_addsubdf3.o)
__floatunsisf                                     /home/paul/gcc-arm-none-eabi-5_2-2015q4/bin/../lib/gcc/arm-none-eabi/5.2.1/armv7-m/libgcc.a(_arm_addsubsf3.o)
__fpclassifyd                                     /home/paul/gcc-arm-none-eabi-5_2-2015q4/bin/../lib/gcc/arm-none-eabi/5.2.1/../../../../arm-none-eabi/lib/armv7-m/libm.a(lib_a-s_fpclassify.o)
                                                  /home/paul/gcc-arm-none-eabi-5_2-2015q4/bin/../lib/gcc/arm-none-eabi/5.2.1/../../../../arm-none-eabi/lib/armv7-m/libm.a(lib_a-w_pow.o)
__gedf2                                           /home/paul/gcc-arm-none-eabi-5_2-2015q4/bin/../lib/gcc/arm-none-eabi/5.2.1/armv7-m/libgcc.a(_arm_cmpdf2.o)
__gtdf2                                           /home/paul/gcc-arm-none-eabi-5_2-2015q4/bin/../lib/gcc/arm-none-eabi/5.2.1/armv7-m/libgcc.a(_arm_cmpdf2.o)
__ieee754_pow                                     /home/paul/gcc-arm-none-eabi-5_2-2015q4/bin/../lib/gcc/arm-none-eabi/5.2.1/../../../../arm-none-eabi/lib/armv7-m/libm.a(lib_a-e_pow.o)
                                                  /home/paul/gcc-arm-none-eabi-5_2-2015q4/bin/../lib/gcc/arm-none-eabi/5.2.1/../../../../arm-none-eabi/lib/armv7-m/libm.a(lib_a-w_pow.o)
__ieee754_sqrt                                    /home/paul/gcc-arm-none-eabi-5_2-2015q4/bin/../lib/gcc/arm-none-eabi/5.2.1/../../../../arm-none-eabi/lib/armv7-m/libm.a(lib_a-e_sqrt.o)
                                                  /home/paul/gcc-arm-none-eabi-5_2-2015q4/bin/../lib/gcc/arm-none-eabi/5.2.1/../../../../arm-none-eabi/lib/armv7-m/libm.a(lib_a-e_pow.o)
__ledf2                                           /home/paul/gcc-arm-none-eabi-5_2-2015q4/bin/../lib/gcc/arm-none-eabi/5.2.1/armv7-m/libgcc.a(_arm_cmpdf2.o)
__ltdf2                                           /home/paul/gcc-arm-none-eabi-5_2-2015q4/bin/../lib/gcc/arm-none-eabi/5.2.1/armv7-m/libgcc.a(_arm_cmpdf2.o)
__muldf3                                          /home/paul/gcc-arm-none-eabi-5_2-2015q4/bin/../lib/gcc/arm-none-eabi/5.2.1/armv7-m/libgcc.a(_arm_muldivdf3.o)
__mulsf3                                          /home/paul/gcc-arm-none-eabi-5_2-2015q4/bin/../lib/gcc/arm-none-eabi/5.2.1/armv7-m/libgcc.a(_arm_muldivsf3.o)
__nedf2                                           /home/paul/gcc-arm-none-eabi-5_2-2015q4/bin/../lib/gcc/arm-none-eabi/5.2.1/armv7-m/libgcc.a(_arm_cmpdf2.o)
__subdf3                                          /home/paul/gcc-arm-none-eabi-5_2-2015q4/bin/../lib/gcc/arm-none-eabi/5.2.1/armv7-m/libgcc.a(_arm_addsubdf3.o)
__subsf3                                          /home/paul/gcc-arm-none-eabi-5_2-2015q4/bin/../lib/gcc/arm-none-eabi/5.2.1/armv7-m/libgcc.a(_arm_addsubsf3.o)
__truncdfsf2                                      /home/paul/gcc-arm-none-eabi-5_2-2015q4/bin/../lib/gcc/arm-none-eabi/5.2.1/armv7-m/libgcc.a(_arm_truncdfsf2.o)
__udivmoddi4                                      /home/paul/gcc-arm-none-eabi-5_2-2015q4/bin/../lib/gcc/arm-none-eabi/5.2.1/armv7-m/libgcc.a(_udivmoddi4.o)
                                                  /home/paul/gcc-arm-none-eabi-5_2-2015q4/bin/../lib/gcc/arm-none-eabi/5.2.1/armv7-m/libgcc.a(_aeabi_uldivmod.o)
_atoi_r                                           /home/paul/gcc-arm-none-eabi-5_2-2015q4/bin/../lib/gcc/arm-none-eabi/5.2.1/../../../../arm-none-eabi/lib/armv7-m/libc.a(lib_a-atoi.o)
_bss                                              obj_srf06-cc26xx/startup_gcc.o
_ctype_                                           /home/paul/gcc-arm-none-eabi-5_2-2015q4/bin/../lib/gcc/arm-none-eabi/5.2.1/../../../../arm-none-eabi/lib/armv7-m/libc.a(lib_a-ctype_.o)
_data                                             obj_srf06-cc26xx/startup_gcc.o
_ebss                                             obj_srf06-cc26xx/startup_gcc.o
_edata                                            obj_srf06-cc26xx/startup_gcc.o
_estack                                           obj_srf06-cc26xx/startup_gcc.o
_etext                                            obj_srf06-cc26xx/startup_gcc.o
_global_impure_ptr                                /home/paul/gcc-arm-none-eabi-5_2-2015q4/bin/../lib/gcc/arm-none-eabi/5.2.1/../../../../arm-none-eabi/lib/armv7-m/libc.a(lib_a-impure.o)
_impure_ptr                                       /home/paul/gcc-arm-none-eabi-5_2-2015q4/bin/../lib/gcc/arm-none-eabi/5.2.1/../../../../arm-none-eabi/lib/armv7-m/libc.a(lib_a-impure.o)
                                                  /home/paul/gcc-arm-none-eabi-5_2-2015q4/bin/../lib/gcc/arm-none-eabi/5.2.1/../../../../arm-none-eabi/lib/armv7-m/libc.a(lib_a-strtol.o)
                                                  /home/paul/gcc-arm-none-eabi-5_2-2015q4/bin/../lib/gcc/arm-none-eabi/5.2.1/../../../../arm-none-eabi/lib/armv7-m/libc.a(lib_a-rand.o)
                                                  /home/paul/gcc-arm-none-eabi-5_2-2015q4/bin/../lib/gcc/arm-none-eabi/5.2.1/../../../../arm-none-eabi/lib/armv7-m/libc.a(lib_a-errno.o)
_strtol_r                                         /home/paul/gcc-arm-none-eabi-5_2-2015q4/bin/../lib/gcc/arm-none-eabi/5.2.1/../../../../arm-none-eabi/lib/armv7-m/libc.a(lib_a-strtol.o)
                                                  /home/paul/gcc-arm-none-eabi-5_2-2015q4/bin/../lib/gcc/arm-none-eabi/5.2.1/../../../../arm-none-eabi/lib/armv7-m/libc.a(lib_a-atoi.o)
atoi                                              /home/paul/gcc-arm-none-eabi-5_2-2015q4/bin/../lib/gcc/arm-none-eabi/5.2.1/../../../../arm-none-eabi/lib/armv7-m/libc.a(lib_a-atoi.o)
                                                  obj_srf06-cc26xx/httpd-simple.o
                                                  obj_srf06-cc26xx/mqtt-client.o
                                                  obj_srf06-cc26xx/net-uart.o
                                                  obj_srf06-cc26xx/res-ble-advd.o
                                                  cc26xx-web-demo.co
auth_token_handler                                obj_srf06-cc26xx/mqtt-client.o
autostart_exit                                    contiki-srf06-cc26xx.a(autostart.o)
autostart_processes                               cc26xx-web-demo.co
                                                  contiki-srf06-cc26xx.a(contiki-main.o)
autostart_start                                   contiki-srf06-cc26xx.a(autostart.o)
                                                  contiki-srf06-cc26xx.a(contiki-main.o)
batmon_sensor                                     contiki-srf06-cc26xx.a(batmon-sensor.o)
                                                  cc26xx-web-demo.co
batmon_temp_reading                               cc26xx-web-demo.co
batmon_timer                                      cc26xx-web-demo.co
batmon_volt_reading                               cc26xx-web-demo.co
bmp_280_sensor                                    contiki-srf06-cc26xx.a(bmp-280-sensor.)
                                                  contiki-srf06-cc26xx.a(board.o)
                                                  contiki-srf06-cc26xx.a(sensortag-senso)
                                                  cc26xx-web-demo.co
bmp_pres_reading                                  cc26xx-web-demo.co
bmp_temp_reading                                  cc26xx-web-demo.co
bmp_timer                                         cc26xx-web-demo.co
board_i2c_read                                    contiki-srf06-cc26xx.a(board-i2c.o)
                                                  contiki-srf06-cc26xx.a(hdc-1000-sensor)
board_i2c_select                                  contiki-srf06-cc26xx.a(board-i2c.o)
                                                  contiki-srf06-cc26xx.a(mpu-9250-sensor)
                                                  contiki-srf06-cc26xx.a(hdc-1000-sensor)
                                                  contiki-srf06-cc26xx.a(opt-3001-sensor)
                                                  contiki-srf06-cc26xx.a(tmp-007-sensor.)
                                                  contiki-srf06-cc26xx.a(bmp-280-sensor.)
board_i2c_shutdown                                contiki-srf06-cc26xx.a(board-i2c.o)
                                                  contiki-srf06-cc26xx.a(board.o)
board_i2c_wakeup                                  contiki-srf06-cc26xx.a(board-i2c.o)
                                                  contiki-srf06-cc26xx.a(board.o)
board_i2c_write                                   contiki-srf06-cc26xx.a(board-i2c.o)
                                                  contiki-srf06-cc26xx.a(sensor-common.o)
board_i2c_write_read                              contiki-srf06-cc26xx.a(board-i2c.o)
                                                  contiki-srf06-cc26xx.a(sensor-common.o)
board_i2c_write_single                            contiki-srf06-cc26xx.a(board-i2c.o)
                                                  contiki-srf06-cc26xx.a(hdc-1000-sensor)
board_init                                        contiki-srf06-cc26xx.a(board.o)
                                                  contiki-srf06-cc26xx.a(contiki-main.o)
board_spi_close                                   contiki-srf06-cc26xx.a(board-spi.o)
                                                  contiki-srf06-cc26xx.a(ext-flash.o)
board_spi_flush                                   contiki-srf06-cc26xx.a(board-spi.o)
                                                  contiki-srf06-cc26xx.a(ext-flash.o)
board_spi_open                                    contiki-srf06-cc26xx.a(board-spi.o)
                                                  contiki-srf06-cc26xx.a(ext-flash.o)
board_spi_read                                    contiki-srf06-cc26xx.a(board-spi.o)
                                                  contiki-srf06-cc26xx.a(ext-flash.o)
board_spi_write                                   contiki-srf06-cc26xx.a(board-spi.o)
                                                  contiki-srf06-cc26xx.a(ext-flash.o)
button_left_sensor                                contiki-srf06-cc26xx.a(button-sensor.o)
                                                  contiki-srf06-cc26xx.a(sensortag-senso)
                                                  cc26xx-web-demo.co
button_right_sensor                               contiki-srf06-cc26xx.a(button-sensor.o)
                                                  contiki-srf06-cc26xx.a(sensortag-senso)
buzzer_init                                       contiki-srf06-cc26xx.a(buzzer.o)
                                                  contiki-srf06-cc26xx.a(board.o)
buzzer_start                                      contiki-srf06-cc26xx.a(buzzer.o)
                                                  obj_srf06-cc26xx/mqtt-client.o
buzzer_state                                      contiki-srf06-cc26xx.a(buzzer.o)
buzzer_stop                                       contiki-srf06-cc26xx.a(buzzer.o)
                                                  contiki-srf06-cc26xx.a(board.o)
                                                  obj_srf06-cc26xx/mqtt-client.o
cc26xx_uart_busy                                  contiki-srf06-cc26xx.a(cc26xx-uart.o)
                                                  contiki-srf06-cc26xx.a(putchar.o)
cc26xx_uart_init                                  contiki-srf06-cc26xx.a(cc26xx-uart.o)
                                                  contiki-srf06-cc26xx.a(contiki-main.o)
cc26xx_uart_set_input                             contiki-srf06-cc26xx.a(cc26xx-uart.o)
                                                  obj_srf06-cc26xx/net-uart.o
cc26xx_uart_write_byte                            contiki-srf06-cc26xx.a(cc26xx-uart.o)
                                                  contiki-srf06-cc26xx.a(putchar.o)
cc26xx_web_demo_config                            cc26xx-web-demo.co
                                                  obj_srf06-cc26xx/httpd-simple.o
                                                  obj_srf06-cc26xx/mqtt-client.o
                                                  obj_srf06-cc26xx/net-uart.o
cc26xx_web_demo_config_loaded_event               cc26xx-web-demo.co
                                                  obj_srf06-cc26xx/net-uart.o
cc26xx_web_demo_ipaddr_sprintf                    cc26xx-web-demo.co
                                                  obj_srf06-cc26xx/httpd-simple.o
                                                  obj_srf06-cc26xx/mqtt-client.o
                                                  obj_srf06-cc26xx/net-uart.o
                                                  obj_srf06-cc26xx/res-net.o
cc26xx_web_demo_load_config_defaults              cc26xx-web-demo.co
                                                  obj_srf06-cc26xx/mqtt-client.o
                                                  obj_srf06-cc26xx/net-uart.o
cc26xx_web_demo_process                           cc26xx-web-demo.co
cc26xx_web_demo_publish_event                     cc26xx-web-demo.co
                                                  obj_srf06-cc26xx/mqtt-client.o
cc26xx_web_demo_restore_defaults                  cc26xx-web-demo.co
                                                  obj_srf06-cc26xx/res-device.o
cc26xx_web_demo_sensor_first                      cc26xx-web-demo.co
                                                  obj_srf06-cc26xx/httpd-simple.o
                                                  obj_srf06-cc26xx/mqtt-client.o
cc26xx_web_demo_sensor_lookup                     cc26xx-web-demo.co
                                                  obj_srf06-cc26xx/res-sensors.o
cetic_6lbr_client_process                         obj_srf06-cc26xx/cetic-6lbr-client.o
                                                  cc26xx-web-demo.co
clock_delay                                       contiki-srf06-cc26xx.a(clock.o)
                                                  contiki-srf06-cc26xx.a(leds.o)
clock_delay_usec                                  contiki-srf06-cc26xx.a(clock.o)
clock_init                                        contiki-srf06-cc26xx.a(clock.o)
                                                  contiki-srf06-cc26xx.a(contiki-main.o)
clock_seconds                                     contiki-srf06-cc26xx.a(clock.o)
                                                  contiki-srf06-cc26xx.a(stimer.o)
                                                  obj_srf06-cc26xx/httpd-simple.o
                                                  obj_srf06-cc26xx/mqtt-client.o
                                                  obj_srf06-cc26xx/res-device.o
clock_time                                        contiki-srf06-cc26xx.a(clock.o)
                                                  contiki-srf06-cc26xx.a(rpl-timers.o)
                                                  contiki-srf06-cc26xx.a(rpl-dag.o)
                                                  contiki-srf06-cc26xx.a(rpl.o)
                                                  contiki-srf06-cc26xx.a(timer.o)
                                                  contiki-srf06-cc26xx.a(etimer.o)
                                                  contiki-srf06-cc26xx.a(lpm.o)
                                                  contiki-srf06-cc26xx.a(button-sensor.o)
clock_update                                      contiki-srf06-cc26xx.a(clock.o)
                                                  contiki-srf06-cc26xx.a(lpm.o)
                                                  contiki-srf06-cc26xx.a(soc-rtc.o)
clock_wait                                        contiki-srf06-cc26xx.a(clock.o)
cmd_type_handler                                  obj_srf06-cc26xx/mqtt-client.o
coap_blocking_request                             contiki-srf06-cc26xx.a(er-coap-engine.)
coap_blocking_request_callback                    contiki-srf06-cc26xx.a(er-coap-engine.)
coap_check_transactions                           contiki-srf06-cc26xx.a(er-coap-transac)
                                                  contiki-srf06-cc26xx.a(er-coap-engine.)
coap_clear_transaction                            contiki-srf06-cc26xx.a(er-coap-transac)
                                                  contiki-srf06-cc26xx.a(er-coap-engine.)
coap_engine                                       contiki-srf06-cc26xx.a(er-coap-engine.)
coap_error_message                                contiki-srf06-cc26xx.a(er-coap.o)
                                                  contiki-srf06-cc26xx.a(er-coap-engine.)
coap_get_header_accept                            contiki-srf06-cc26xx.a(er-coap.o)
                                                  contiki-srf06-cc26xx.a(er-coap-engine.)
coap_get_header_block1                            contiki-srf06-cc26xx.a(er-coap.o)
coap_get_header_block2                            contiki-srf06-cc26xx.a(er-coap.o)
                                                  contiki-srf06-cc26xx.a(er-coap-engine.)
coap_get_header_content_format                    contiki-srf06-cc26xx.a(er-coap.o)
                                                  contiki-srf06-cc26xx.a(er-coap-engine.)
coap_get_header_etag                              contiki-srf06-cc26xx.a(er-coap.o)
coap_get_header_if_match                          contiki-srf06-cc26xx.a(er-coap.o)
                                                  contiki-srf06-cc26xx.a(er-coap-engine.)
coap_get_header_if_none_match                     contiki-srf06-cc26xx.a(er-coap.o)
                                                  contiki-srf06-cc26xx.a(er-coap-engine.)
coap_get_header_location_path                     contiki-srf06-cc26xx.a(er-coap.o)
coap_get_header_location_query                    contiki-srf06-cc26xx.a(er-coap.o)
coap_get_header_max_age                           contiki-srf06-cc26xx.a(er-coap.o)
                                                  contiki-srf06-cc26xx.a(er-coap-engine.)
coap_get_header_observe                           contiki-srf06-cc26xx.a(er-coap.o)
coap_get_header_proxy_uri                         contiki-srf06-cc26xx.a(er-coap.o)
coap_get_header_size1                             contiki-srf06-cc26xx.a(er-coap.o)
coap_get_header_size2                             contiki-srf06-cc26xx.a(er-coap.o)
                                                  contiki-srf06-cc26xx.a(er-coap-engine.)
coap_get_header_uri_host                          contiki-srf06-cc26xx.a(er-coap.o)
                                                  contiki-srf06-cc26xx.a(er-coap-engine.)
coap_get_header_uri_path                          contiki-srf06-cc26xx.a(er-coap.o)
                                                  contiki-srf06-cc26xx.a(er-coap-engine.)
coap_get_header_uri_query                         contiki-srf06-cc26xx.a(er-coap.o)
                                                  contiki-srf06-cc26xx.a(er-coap-engine.)
coap_get_mid                                      contiki-srf06-cc26xx.a(er-coap.o)
                                                  contiki-srf06-cc26xx.a(er-coap-observe)
                                                  contiki-srf06-cc26xx.a(er-coap-engine.)
coap_get_payload                                  contiki-srf06-cc26xx.a(er-coap.o)
                                                  contiki-srf06-cc26xx.a(er-coap-engine.)
coap_get_post_variable                            contiki-srf06-cc26xx.a(er-coap.o)
                                                  contiki-srf06-cc26xx.a(er-coap-engine.)
coap_get_query_variable                           contiki-srf06-cc26xx.a(er-coap.o)
                                                  contiki-srf06-cc26xx.a(er-coap-engine.)
coap_get_rest_method                              contiki-srf06-cc26xx.a(er-coap-engine.)
coap_get_transaction_by_mid                       contiki-srf06-cc26xx.a(er-coap-transac)
                                                  contiki-srf06-cc26xx.a(er-coap-engine.)
coap_init_connection                              contiki-srf06-cc26xx.a(er-coap.o)
                                                  contiki-srf06-cc26xx.a(er-coap-engine.)
coap_init_engine                                  contiki-srf06-cc26xx.a(er-coap-engine.)
coap_init_message                                 contiki-srf06-cc26xx.a(er-coap.o)
                                                  contiki-srf06-cc26xx.a(er-coap-observe)
                                                  contiki-srf06-cc26xx.a(er-coap-engine.)
coap_new_transaction                              contiki-srf06-cc26xx.a(er-coap-transac)
                                                  contiki-srf06-cc26xx.a(er-coap-observe)
                                                  contiki-srf06-cc26xx.a(er-coap-engine.)
coap_notify_observers                             contiki-srf06-cc26xx.a(er-coap-observe)
                                                  contiki-srf06-cc26xx.a(er-coap-engine.)
coap_notify_observers_sub                         contiki-srf06-cc26xx.a(er-coap-observe)
coap_observe_handler                              contiki-srf06-cc26xx.a(er-coap-observe)
                                                  contiki-srf06-cc26xx.a(er-coap-engine.)
coap_parse_message                                contiki-srf06-cc26xx.a(er-coap.o)
                                                  contiki-srf06-cc26xx.a(er-coap-engine.)
coap_register_as_transaction_handler              contiki-srf06-cc26xx.a(er-coap-transac)
                                                  contiki-srf06-cc26xx.a(er-coap-engine.)
coap_remove_observer                              contiki-srf06-cc26xx.a(er-coap-observe)
coap_remove_observer_by_client                    contiki-srf06-cc26xx.a(er-coap-observe)
                                                  contiki-srf06-cc26xx.a(er-coap-transac)
coap_remove_observer_by_mid                       contiki-srf06-cc26xx.a(er-coap-observe)
                                                  contiki-srf06-cc26xx.a(er-coap-engine.)
coap_remove_observer_by_token                     contiki-srf06-cc26xx.a(er-coap-observe)
coap_remove_observer_by_uri                       contiki-srf06-cc26xx.a(er-coap-observe)
coap_rest_implementation                          contiki-srf06-cc26xx.a(er-coap-engine.)
                                                  contiki-srf06-cc26xx.a(rest-engine.o)
                                                  obj_srf06-cc26xx/res-net.o
                                                  obj_srf06-cc26xx/res-ble-advd.o
                                                  obj_srf06-cc26xx/res-sensors.o
                                                  obj_srf06-cc26xx/res-device.o
                                                  obj_srf06-cc26xx/res-leds.o
coap_send_message                                 contiki-srf06-cc26xx.a(er-coap.o)
                                                  contiki-srf06-cc26xx.a(er-coap-transac)
                                                  contiki-srf06-cc26xx.a(er-coap-engine.)
coap_send_transaction                             contiki-srf06-cc26xx.a(er-coap-transac)
                                                  contiki-srf06-cc26xx.a(er-coap-observe)
                                                  contiki-srf06-cc26xx.a(er-coap-engine.)
coap_serialize_message                            contiki-srf06-cc26xx.a(er-coap.o)
                                                  contiki-srf06-cc26xx.a(er-coap-observe)
                                                  contiki-srf06-cc26xx.a(er-coap-engine.)
coap_server_not_found_msg                         obj_srf06-cc26xx/coap-server.o
                                                  obj_srf06-cc26xx/res-sensors.o
coap_server_process                               obj_srf06-cc26xx/coap-server.o
                                                  cc26xx-web-demo.co
coap_server_supported_msg                         obj_srf06-cc26xx/coap-server.o
                                                  obj_srf06-cc26xx/res-net.o
                                                  obj_srf06-cc26xx/res-sensors.o
                                                  obj_srf06-cc26xx/res-device.o
coap_set_header_accept                            contiki-srf06-cc26xx.a(er-coap.o)
coap_set_header_block1                            contiki-srf06-cc26xx.a(er-coap.o)
coap_set_header_block2                            contiki-srf06-cc26xx.a(er-coap.o)
                                                  contiki-srf06-cc26xx.a(er-coap-engine.)
coap_set_header_content_format                    contiki-srf06-cc26xx.a(er-coap.o)
                                                  contiki-srf06-cc26xx.a(er-coap-res-wel)
                                                  contiki-srf06-cc26xx.a(er-coap-engine.)
coap_set_header_etag                              contiki-srf06-cc26xx.a(er-coap.o)
                                                  contiki-srf06-cc26xx.a(er-coap-engine.)
coap_set_header_if_match                          contiki-srf06-cc26xx.a(er-coap.o)
coap_set_header_if_none_match                     contiki-srf06-cc26xx.a(er-coap.o)
coap_set_header_location_path                     contiki-srf06-cc26xx.a(er-coap.o)
                                                  contiki-srf06-cc26xx.a(er-coap-engine.)
coap_set_header_location_query                    contiki-srf06-cc26xx.a(er-coap.o)
coap_set_header_max_age                           contiki-srf06-cc26xx.a(er-coap.o)
                                                  contiki-srf06-cc26xx.a(er-coap-engine.)
coap_set_header_observe                           contiki-srf06-cc26xx.a(er-coap.o)
                                                  contiki-srf06-cc26xx.a(er-coap-observe)
coap_set_header_proxy_uri                         contiki-srf06-cc26xx.a(er-coap.o)
coap_set_header_size1                             contiki-srf06-cc26xx.a(er-coap.o)
coap_set_header_size2                             contiki-srf06-cc26xx.a(er-coap.o)
                                                  contiki-srf06-cc26xx.a(er-coap-engine.)
coap_set_header_uri_host                          contiki-srf06-cc26xx.a(er-coap.o)
coap_set_header_uri_path                          contiki-srf06-cc26xx.a(er-coap.o)
                                                  contiki-srf06-cc26xx.a(er-coap-observe)
coap_set_header_uri_query                         contiki-srf06-cc26xx.a(er-coap.o)
coap_set_payload                                  contiki-srf06-cc26xx.a(er-coap.o)
                                                  contiki-srf06-cc26xx.a(er-coap-res-wel)
                                                  contiki-srf06-cc26xx.a(er-coap-observe)
                                                  contiki-srf06-cc26xx.a(er-coap-engine.)
coap_set_service_callback                         contiki-srf06-cc26xx.a(er-coap-engine.)
coap_set_status_code                              contiki-srf06-cc26xx.a(er-coap.o)
                                                  contiki-srf06-cc26xx.a(er-coap-res-wel)
                                                  contiki-srf06-cc26xx.a(er-coap-engine.)
coap_set_token                                    contiki-srf06-cc26xx.a(er-coap.o)
                                                  contiki-srf06-cc26xx.a(er-coap-observe)
                                                  contiki-srf06-cc26xx.a(er-coap-engine.)
conf                                              obj_srf06-cc26xx/mqtt-client.o
contikimac_debug_print                            contiki-srf06-cc26xx.a(contikimac.o)
contikimac_driver                                 contiki-srf06-cc26xx.a(contikimac.o)
                                                  contiki-srf06-cc26xx.a(rf-core.o)
                                                  contiki-srf06-cc26xx.a(csma.o)
                                                  contiki-srf06-cc26xx.a(netstack.o)
                                                  contiki-srf06-cc26xx.a(contiki-main.o)
copysign                                          /home/paul/gcc-arm-none-eabi-5_2-2015q4/bin/../lib/gcc/arm-none-eabi/5.2.1/../../../../arm-none-eabi/lib/armv7-m/libm.a(lib_a-s_copysign.o)
                                                  /home/paul/gcc-arm-none-eabi-5_2-2015q4/bin/../lib/gcc/arm-none-eabi/5.2.1/../../../../arm-none-eabi/lib/armv7-m/libm.a(lib_a-s_scalbn.o)
csma_driver                                       contiki-srf06-cc26xx.a(csma.o)
                                                  contiki-srf06-cc26xx.a(nullsec.o)
                                                  contiki-srf06-cc26xx.a(contikimac.o)
                                                  contiki-srf06-cc26xx.a(netstack.o)
                                                  contiki-srf06-cc26xx.a(contiki-main.o)
ctimer_expired                                    contiki-srf06-cc26xx.a(ctimer.o)
ctimer_init                                       contiki-srf06-cc26xx.a(ctimer.o)
                                                  contiki-srf06-cc26xx.a(contiki-main.o)
ctimer_process                                    contiki-srf06-cc26xx.a(ctimer.o)
ctimer_reset                                      contiki-srf06-cc26xx.a(ctimer.o)
                                                  contiki-srf06-cc26xx.a(rpl-timers.o)
ctimer_restart                                    contiki-srf06-cc26xx.a(ctimer.o)
                                                  contiki-srf06-cc26xx.a(mqtt.o)
ctimer_set                                        contiki-srf06-cc26xx.a(ctimer.o)
                                                  contiki-srf06-cc26xx.a(contikimac.o)
                                                  contiki-srf06-cc26xx.a(csma.o)
                                                  contiki-srf06-cc26xx.a(rpl-timers.o)
                                                  contiki-srf06-cc26xx.a(mpu-9250-sensor)
                                                  contiki-srf06-cc26xx.a(hdc-1000-sensor)
                                                  contiki-srf06-cc26xx.a(opt-3001-sensor)
                                                  contiki-srf06-cc26xx.a(tmp-007-sensor.)
                                                  contiki-srf06-cc26xx.a(bmp-280-sensor.)
                                                  contiki-srf06-cc26xx.a(mqtt.o)
                                                  obj_srf06-cc26xx/mqtt-client.o
                                                  cc26xx-web-demo.co
ctimer_set_with_process                           contiki-srf06-cc26xx.a(ctimer.o)
ctimer_stop                                       contiki-srf06-cc26xx.a(ctimer.o)
                                                  contiki-srf06-cc26xx.a(contikimac.o)
                                                  contiki-srf06-cc26xx.a(csma.o)
                                                  contiki-srf06-cc26xx.a(rpl-timers.o)
                                                  contiki-srf06-cc26xx.a(rpl-dag.o)
                                                  contiki-srf06-cc26xx.a(mpu-9250-sensor)
                                                  contiki-srf06-cc26xx.a(hdc-1000-sensor)
                                                  contiki-srf06-cc26xx.a(opt-3001-sensor)
                                                  contiki-srf06-cc26xx.a(tmp-007-sensor.)
                                                  contiki-srf06-cc26xx.a(bmp-280-sensor.)
                                                  contiki-srf06-cc26xx.a(mqtt.o)
dao_ack_output                                    contiki-srf06-cc26xx.a(rpl-icmp6.o)
dao_output                                        contiki-srf06-cc26xx.a(rpl-icmp6.o)
                                                  contiki-srf06-cc26xx.a(rpl-timers.o)
                                                  contiki-srf06-cc26xx.a(rpl-dag.o)
                                                  contiki-srf06-cc26xx.a(rpl.o)
dao_output_target                                 contiki-srf06-cc26xx.a(rpl-icmp6.o)
                                                  contiki-srf06-cc26xx.a(rpl-ext-header.)
                                                  contiki-srf06-cc26xx.a(rpl.o)
dbg_send_bytes                                    contiki-srf06-cc26xx.a(putchar.o)
                                                  contiki-srf06-cc26xx.a(dbg-printf.o)
def_rt_rssi                                       cc26xx-web-demo.co
                                                  obj_srf06-cc26xx/mqtt-client.o
                                                  obj_srf06-cc26xx/res-net.o
default_instance                                  contiki-srf06-cc26xx.a(rpl-dag.o)
                                                  contiki-srf06-cc26xx.a(rpl-ext-header.)
                                                  contiki-srf06-cc26xx.a(rpl.o)
defaults_handler                                  cc26xx-web-demo.co
dio_output                                        contiki-srf06-cc26xx.a(rpl-icmp6.o)
                                                  contiki-srf06-cc26xx.a(rpl-timers.o)
dis_output                                        contiki-srf06-cc26xx.a(rpl-icmp6.o)
                                                  contiki-srf06-cc26xx.a(rpl-timers.o)
ds6_neighbors                                     contiki-srf06-cc26xx.a(uip-ds6-nbr.o)
                                                  contiki-srf06-cc26xx.a(rpl-dag.o)
                                                  obj_srf06-cc26xx/httpd-simple.o
energest_flush                                    contiki-srf06-cc26xx.a(energest.o)
energest_init                                     contiki-srf06-cc26xx.a(energest.o)
                                                  contiki-srf06-cc26xx.a(contiki-main.o)
energest_type_set                                 contiki-srf06-cc26xx.a(energest.o)
energest_type_time                                contiki-srf06-cc26xx.a(energest.o)
erbium_status_code                                contiki-srf06-cc26xx.a(er-coap.o)
                                                  contiki-srf06-cc26xx.a(er-coap-engine.)
etimer_adjust                                     contiki-srf06-cc26xx.a(etimer.o)
etimer_expiration_time                            contiki-srf06-cc26xx.a(etimer.o)
                                                  contiki-srf06-cc26xx.a(rpl-timers.o)
etimer_expired                                    contiki-srf06-cc26xx.a(etimer.o)
                                                  contiki-srf06-cc26xx.a(rpl-timers.o)
                                                  contiki-srf06-cc26xx.a(tcpip.o)
                                                  contiki-srf06-cc26xx.a(ctimer.o)
                                                  contiki-srf06-cc26xx.a(rest-engine.o)
                                                  contiki-srf06-cc26xx.a(er-coap-transac)
                                                  obj_srf06-cc26xx/cetic-6lbr-client.o
                                                  cc26xx-web-demo.co
etimer_next_expiration_time                       contiki-srf06-cc26xx.a(etimer.o)
                                                  contiki-srf06-cc26xx.a(lpm.o)
etimer_pending                                    contiki-srf06-cc26xx.a(etimer.o)
                                                  contiki-srf06-cc26xx.a(lpm.o)
                                                  contiki-srf06-cc26xx.a(clock.o)
etimer_process                                    contiki-srf06-cc26xx.a(etimer.o)
                                                  contiki-srf06-cc26xx.a(contiki-main.o)
etimer_request_poll                               contiki-srf06-cc26xx.a(etimer.o)
                                                  contiki-srf06-cc26xx.a(clock.o)
etimer_reset                                      contiki-srf06-cc26xx.a(etimer.o)
                                                  contiki-srf06-cc26xx.a(uip-ds6.o)
                                                  contiki-srf06-cc26xx.a(ctimer.o)
                                                  contiki-srf06-cc26xx.a(rest-engine.o)
etimer_reset_with_new_interval                    contiki-srf06-cc26xx.a(etimer.o)
etimer_restart                                    contiki-srf06-cc26xx.a(etimer.o)
                                                  contiki-srf06-cc26xx.a(tcpip.o)
                                                  contiki-srf06-cc26xx.a(ctimer.o)
                                                  contiki-srf06-cc26xx.a(er-coap-transac)
etimer_set                                        contiki-srf06-cc26xx.a(etimer.o)
                                                  contiki-srf06-cc26xx.a(tcpip.o)
                                                  contiki-srf06-cc26xx.a(uip-ds6.o)
                                                  contiki-srf06-cc26xx.a(ctimer.o)
                                                  contiki-srf06-cc26xx.a(rf-ble.o)
                                                  contiki-srf06-cc26xx.a(rest-engine.o)
                                                  obj_srf06-cc26xx/mqtt-client.o
                                                  obj_srf06-cc26xx/cetic-6lbr-client.o
                                                  cc26xx-web-demo.co
etimer_start_time                                 contiki-srf06-cc26xx.a(etimer.o)
etimer_stop                                       contiki-srf06-cc26xx.a(etimer.o)
                                                  contiki-srf06-cc26xx.a(ctimer.o)
                                                  contiki-srf06-cc26xx.a(er-coap-transac)
                                                  obj_srf06-cc26xx/mqtt-client.o
event_type_id_handler                             obj_srf06-cc26xx/mqtt-client.o
exp2                                              /home/paul/gcc-arm-none-eabi-5_2-2015q4/bin/../lib/gcc/arm-none-eabi/5.2.1/../../../../arm-none-eabi/lib/armv7-m/libm.a(lib_a-w_exp2.o)
                                                  contiki-srf06-cc26xx.a(opt-3001-sensor)
ext_flash_close                                   contiki-srf06-cc26xx.a(ext-flash.o)
                                                  cc26xx-web-demo.co
ext_flash_erase                                   contiki-srf06-cc26xx.a(ext-flash.o)
                                                  cc26xx-web-demo.co
ext_flash_init                                    contiki-srf06-cc26xx.a(ext-flash.o)
                                                  contiki-srf06-cc26xx.a(board.o)
ext_flash_open                                    contiki-srf06-cc26xx.a(ext-flash.o)
                                                  cc26xx-web-demo.co
ext_flash_read                                    contiki-srf06-cc26xx.a(ext-flash.o)
                                                  cc26xx-web-demo.co
ext_flash_test                                    contiki-srf06-cc26xx.a(ext-flash.o)
ext_flash_write                                   contiki-srf06-cc26xx.a(ext-flash.o)
                                                  cc26xx-web-demo.co
fabs                                              /home/paul/gcc-arm-none-eabi-5_2-2015q4/bin/../lib/gcc/arm-none-eabi/5.2.1/../../../../arm-none-eabi/lib/armv7-m/libm.a(lib_a-s_fabs.o)
                                                  /home/paul/gcc-arm-none-eabi-5_2-2015q4/bin/../lib/gcc/arm-none-eabi/5.2.1/../../../../arm-none-eabi/lib/armv7-m/libm.a(lib_a-e_pow.o)
finite                                            /home/paul/gcc-arm-none-eabi-5_2-2015q4/bin/../lib/gcc/arm-none-eabi/5.2.1/../../../../arm-none-eabi/lib/armv7-m/libm.a(lib_a-s_finite.o)
                                                  /home/paul/gcc-arm-none-eabi-5_2-2015q4/bin/../lib/gcc/arm-none-eabi/5.2.1/../../../../arm-none-eabi/lib/armv7-m/libm.a(lib_a-w_pow.o)
forbidden_payload                                 obj_srf06-cc26xx/res-ble-advd.o
format_str                                        contiki-srf06-cc26xx.a(strformat.o)
format_str_v                                      contiki-srf06-cc26xx.a(strformat.o)
                                                  contiki-srf06-cc26xx.a(dbg-sprintf.o)
                                                  contiki-srf06-cc26xx.a(dbg-snprintf.o)
                                                  contiki-srf06-cc26xx.a(dbg-printf.o)
frame802154_check_dest_panid                      contiki-srf06-cc26xx.a(frame802154.o)
frame802154_create                                contiki-srf06-cc26xx.a(frame802154.o)
                                                  contiki-srf06-cc26xx.a(framer-802154.o)
frame802154_extract_linkaddr                      contiki-srf06-cc26xx.a(frame802154.o)
frame802154_get_pan_id                            contiki-srf06-cc26xx.a(frame802154.o)
                                                  contiki-srf06-cc26xx.a(framer-802154.o)
frame802154_has_panid                             contiki-srf06-cc26xx.a(frame802154.o)
frame802154_hdrlen                                contiki-srf06-cc26xx.a(frame802154.o)
                                                  contiki-srf06-cc26xx.a(framer-802154.o)
frame802154_is_broadcast_addr                     contiki-srf06-cc26xx.a(frame802154.o)
                                                  contiki-srf06-cc26xx.a(framer-802154.o)
frame802154_parse                                 contiki-srf06-cc26xx.a(frame802154.o)
                                                  contiki-srf06-cc26xx.a(framer-802154.o)
frame802154_set_pan_id                            contiki-srf06-cc26xx.a(frame802154.o)
framer_802154                                     contiki-srf06-cc26xx.a(framer-802154.o)
                                                  contiki-srf06-cc26xx.a(contikimac.o)
                                                  contiki-srf06-cc26xx.a(sicslowpan.o)
gVectors                                          obj_srf06-cc26xx/startup_gcc.o
get_match_length                                  contiki-srf06-cc26xx.a(uip-ds6.o)
gpio_interrupt_init                               contiki-srf06-cc26xx.a(gpio-interrupt.)
                                                  contiki-srf06-cc26xx.a(contiki-main.o)
gpio_interrupt_register_handler                   contiki-srf06-cc26xx.a(gpio-interrupt.)
                                                  contiki-srf06-cc26xx.a(reed-relay.o)
                                                  contiki-srf06-cc26xx.a(button-sensor.o)
hdc_1000_sensor                                   contiki-srf06-cc26xx.a(hdc-1000-sensor)
                                                  contiki-srf06-cc26xx.a(board.o)
                                                  contiki-srf06-cc26xx.a(sensortag-senso)
                                                  cc26xx-web-demo.co
hdc_hum_reading                                   cc26xx-web-demo.co
hdc_temp_reading                                  cc26xx-web-demo.co
hdc_timer                                         cc26xx-web-demo.co
httpd_simple_event_new_config                     obj_srf06-cc26xx/httpd-simple.o
                                                  obj_srf06-cc26xx/mqtt-client.o
                                                  cc26xx-web-demo.co
httpd_simple_process                              obj_srf06-cc26xx/httpd-simple.o
                                                  cc26xx-web-demo.co
httpd_simple_register_post_handler                obj_srf06-cc26xx/httpd-simple.o
                                                  obj_srf06-cc26xx/mqtt-client.o
                                                  obj_srf06-cc26xx/net-uart.o
                                                  cc26xx-web-demo.co
icmp6_new                                         contiki-srf06-cc26xx.a(tcpip.o)
ieee_addr_cpy_to                                  contiki-srf06-cc26xx.a(ieee-addr.o)
                                                  contiki-srf06-cc26xx.a(contiki-main.o)
ieee_mode_driver                                  contiki-srf06-cc26xx.a(ieee-mode.o)
                                                  contiki-srf06-cc26xx.a(rf-core.o)
                                                  contiki-srf06-cc26xx.a(contikimac.o)
                                                  contiki-srf06-cc26xx.a(netstack.o)
                                                  contiki-srf06-cc26xx.a(rf-ble.o)
                                                  contiki-srf06-cc26xx.a(contiki-main.o)
instance_table                                    contiki-srf06-cc26xx.a(rpl-dag.o)
                                                  contiki-srf06-cc26xx.a(rpl-icmp6.o)
                                                  contiki-srf06-cc26xx.a(rpl.o)
interval_handler                                  obj_srf06-cc26xx/mqtt-client.o
ip_addr_handler                                   obj_srf06-cc26xx/mqtt-client.o
leds_arch_get                                     contiki-srf06-cc26xx.a(leds-arch.o)
                                                  contiki-srf06-cc26xx.a(leds.o)
leds_arch_init                                    contiki-srf06-cc26xx.a(leds-arch.o)
                                                  contiki-srf06-cc26xx.a(leds.o)
leds_arch_set                                     contiki-srf06-cc26xx.a(leds-arch.o)
                                                  contiki-srf06-cc26xx.a(leds.o)
leds_blink                                        contiki-srf06-cc26xx.a(leds.o)
leds_get                                          contiki-srf06-cc26xx.a(leds.o)
leds_init                                         contiki-srf06-cc26xx.a(leds.o)
                                                  contiki-srf06-cc26xx.a(contiki-main.o)
leds_off                                          contiki-srf06-cc26xx.a(leds.o)
                                                  contiki-srf06-cc26xx.a(contiki-main.o)
                                                  obj_srf06-cc26xx/mqtt-client.o
                                                  obj_srf06-cc26xx/res-leds.o
                                                  cc26xx-web-demo.co
leds_on                                           contiki-srf06-cc26xx.a(leds.o)
                                                  contiki-srf06-cc26xx.a(contiki-main.o)
                                                  obj_srf06-cc26xx/mqtt-client.o
                                                  obj_srf06-cc26xx/res-leds.o
                                                  cc26xx-web-demo.co
leds_set                                          contiki-srf06-cc26xx.a(leds.o)
leds_toggle                                       contiki-srf06-cc26xx.a(leds.o)
                                                  obj_srf06-cc26xx/res-toggle-leds.o
linkaddr_cmp                                      contiki-srf06-cc26xx.a(linkaddr.o)
                                                  contiki-srf06-cc26xx.a(mac-sequence.o)
                                                  contiki-srf06-cc26xx.a(contikimac.o)
                                                  contiki-srf06-cc26xx.a(csma.o)
                                                  contiki-srf06-cc26xx.a(packetbuf.o)
                                                  contiki-srf06-cc26xx.a(nbr-table.o)
                                                  contiki-srf06-cc26xx.a(uip-ds6-nbr.o)
                                                  contiki-srf06-cc26xx.a(sicslowpan.o)
linkaddr_copy                                     contiki-srf06-cc26xx.a(linkaddr.o)
                                                  contiki-srf06-cc26xx.a(mac-sequence.o)
                                                  contiki-srf06-cc26xx.a(frame802154.o)
                                                  contiki-srf06-cc26xx.a(framer-802154.o)
                                                  contiki-srf06-cc26xx.a(csma.o)
                                                  contiki-srf06-cc26xx.a(packetbuf.o)
                                                  contiki-srf06-cc26xx.a(nbr-table.o)
                                                  contiki-srf06-cc26xx.a(sicslowpan.o)
linkaddr_node_addr                                contiki-srf06-cc26xx.a(linkaddr.o)
                                                  contiki-srf06-cc26xx.a(contikimac.o)
                                                  contiki-srf06-cc26xx.a(framer-802154.o)
                                                  contiki-srf06-cc26xx.a(rf-ble.o)
                                                  contiki-srf06-cc26xx.a(contiki-main.o)
                                                  obj_srf06-cc26xx/httpd-simple.o
                                                  obj_srf06-cc26xx/mqtt-client.o
linkaddr_null                                     contiki-srf06-cc26xx.a(linkaddr.o)
                                                  contiki-srf06-cc26xx.a(frame802154.o)
                                                  contiki-srf06-cc26xx.a(packetbuf.o)
                                                  contiki-srf06-cc26xx.a(nbr-table.o)
                                                  contiki-srf06-cc26xx.a(uip-ds6-nbr.o)
                                                  contiki-srf06-cc26xx.a(sicslowpan.o)
linkaddr_set_node_addr                            contiki-srf06-cc26xx.a(linkaddr.o)
list_add                                          contiki-srf06-cc26xx.a(list.o)
                                                  contiki-srf06-cc26xx.a(csma.o)
                                                  contiki-srf06-cc26xx.a(nbr-table.o)
                                                  contiki-srf06-cc26xx.a(tcp-socket.o)
                                                  contiki-srf06-cc26xx.a(uip-icmp6.o)
                                                  contiki-srf06-cc26xx.a(uip-ds6-route.o)
                                                  contiki-srf06-cc26xx.a(ctimer.o)
                                                  contiki-srf06-cc26xx.a(lpm.o)
                                                  contiki-srf06-cc26xx.a(mqtt.o)
                                                  contiki-srf06-cc26xx.a(rest-engine.o)
                                                  contiki-srf06-cc26xx.a(er-coap-observe)
                                                  contiki-srf06-cc26xx.a(er-coap-transac)
                                                  obj_srf06-cc26xx/httpd-simple.o
                                                  cc26xx-web-demo.co
list_chop                                         contiki-srf06-cc26xx.a(list.o)
list_copy                                         contiki-srf06-cc26xx.a(list.o)
list_head                                         contiki-srf06-cc26xx.a(list.o)
                                                  contiki-srf06-cc26xx.a(csma.o)
                                                  contiki-srf06-cc26xx.a(nbr-table.o)
                                                  contiki-srf06-cc26xx.a(tcp-socket.o)
                                                  contiki-srf06-cc26xx.a(uip-icmp6.o)
                                                  contiki-srf06-cc26xx.a(uip-ds6-route.o)
                                                  contiki-srf06-cc26xx.a(ctimer.o)
                                                  contiki-srf06-cc26xx.a(lpm.o)
                                                  contiki-srf06-cc26xx.a(rest-engine.o)
                                                  contiki-srf06-cc26xx.a(er-coap-res-wel)
                                                  contiki-srf06-cc26xx.a(er-coap-observe)
                                                  contiki-srf06-cc26xx.a(er-coap-transac)
                                                  obj_srf06-cc26xx/httpd-simple.o
                                                  cc26xx-web-demo.co
list_init                                         contiki-srf06-cc26xx.a(list.o)
                                                  contiki-srf06-cc26xx.a(csma.o)
                                                  contiki-srf06-cc26xx.a(tcp-socket.o)
                                                  contiki-srf06-cc26xx.a(uip-ds6-route.o)
                                                  contiki-srf06-cc26xx.a(ctimer.o)
                                                  contiki-srf06-cc26xx.a(lpm.o)
                                                  contiki-srf06-cc26xx.a(mqtt.o)
                                                  contiki-srf06-cc26xx.a(rest-engine.o)
list_insert                                       contiki-srf06-cc26xx.a(list.o)
list_item_next                                    contiki-srf06-cc26xx.a(list.o)
                                                  contiki-srf06-cc26xx.a(contikimac.o)
                                                  contiki-srf06-cc26xx.a(csma.o)
                                                  contiki-srf06-cc26xx.a(nbr-table.o)
                                                  contiki-srf06-cc26xx.a(tcp-socket.o)
                                                  contiki-srf06-cc26xx.a(uip-icmp6.o)
                                                  contiki-srf06-cc26xx.a(uip-ds6-route.o)
                                                  obj_srf06-cc26xx/httpd-simple.o
                                                  cc26xx-web-demo.co
list_length                                       contiki-srf06-cc26xx.a(list.o)
                                                  contiki-srf06-cc26xx.a(csma.o)
                                                  contiki-srf06-cc26xx.a(uip-ds6-route.o)
list_pop                                          contiki-srf06-cc26xx.a(list.o)
list_push                                         contiki-srf06-cc26xx.a(list.o)
                                                  contiki-srf06-cc26xx.a(uip-ds6-route.o)
list_remove                                       contiki-srf06-cc26xx.a(list.o)
                                                  contiki-srf06-cc26xx.a(csma.o)
                                                  contiki-srf06-cc26xx.a(nbr-table.o)
                                                  contiki-srf06-cc26xx.a(tcp-socket.o)
                                                  contiki-srf06-cc26xx.a(uip-icmp6.o)
                                                  contiki-srf06-cc26xx.a(uip-ds6-route.o)
                                                  contiki-srf06-cc26xx.a(ctimer.o)
                                                  contiki-srf06-cc26xx.a(lpm.o)
                                                  contiki-srf06-cc26xx.a(er-coap-observe)
                                                  contiki-srf06-cc26xx.a(er-coap-transac)
list_tail                                         contiki-srf06-cc26xx.a(list.o)
                                                  contiki-srf06-cc26xx.a(uip-ds6-route.o)
llprefix                                          contiki-srf06-cc26xx.a(sicslowpan.o)
lpm_drop                                          contiki-srf06-cc26xx.a(lpm.o)
                                                  contiki-srf06-cc26xx.a(contiki-main.o)
lpm_init                                          contiki-srf06-cc26xx.a(lpm.o)
                                                  contiki-srf06-cc26xx.a(contiki-main.o)
lpm_pin_set_default_state                         contiki-srf06-cc26xx.a(lpm.o)
                                                  contiki-srf06-cc26xx.a(cc26xx-uart.o)
lpm_register_module                               contiki-srf06-cc26xx.a(lpm.o)
                                                  contiki-srf06-cc26xx.a(ieee-mode.o)
                                                  contiki-srf06-cc26xx.a(cc26xx-uart.o)
                                                  contiki-srf06-cc26xx.a(board.o)
                                                  contiki-srf06-cc26xx.a(buzzer.o)
lpm_shutdown                                      contiki-srf06-cc26xx.a(lpm.o)
                                                  contiki-srf06-cc26xx.a(button-sensor.o)
lpm_sleep                                         contiki-srf06-cc26xx.a(lpm.o)
                                                  contiki-srf06-cc26xx.a(ieee-mode.o)
lpm_unregister_module                             contiki-srf06-cc26xx.a(lpm.o)
                                                  contiki-srf06-cc26xx.a(buzzer.o)
mac_call_sent_callback                            contiki-srf06-cc26xx.a(mac.o)
                                                  contiki-srf06-cc26xx.a(contikimac.o)
                                                  contiki-srf06-cc26xx.a(csma.o)
mac_sequence_is_duplicate                         contiki-srf06-cc26xx.a(mac-sequence.o)
                                                  contiki-srf06-cc26xx.a(contikimac.o)
mac_sequence_register_seqno                       contiki-srf06-cc26xx.a(mac-sequence.o)
                                                  contiki-srf06-cc26xx.a(contikimac.o)
main                                              contiki-srf06-cc26xx.a(contiki-main.o)
                                                  obj_srf06-cc26xx/startup_gcc.o
matherr                                           /home/paul/gcc-arm-none-eabi-5_2-2015q4/bin/../lib/gcc/arm-none-eabi/5.2.1/../../../../arm-none-eabi/lib/armv7-m/libm.a(lib_a-s_matherr.o)
                                                  /home/paul/gcc-arm-none-eabi-5_2-2015q4/bin/../lib/gcc/arm-none-eabi/5.2.1/../../../../arm-none-eabi/lib/armv7-m/libm.a(lib_a-w_pow.o)
memb_alloc                                        contiki-srf06-cc26xx.a(memb.o)
                                                  contiki-srf06-cc26xx.a(csma.o)
                                                  contiki-srf06-cc26xx.a(queuebuf.o)
                                                  contiki-srf06-cc26xx.a(nbr-table.o)
                                                  contiki-srf06-cc26xx.a(uip-ds6-route.o)
                                                  contiki-srf06-cc26xx.a(er-coap-observe)
                                                  contiki-srf06-cc26xx.a(er-coap-transac)
                                                  obj_srf06-cc26xx/httpd-simple.o
memb_free                                         contiki-srf06-cc26xx.a(memb.o)
                                                  contiki-srf06-cc26xx.a(csma.o)
                                                  contiki-srf06-cc26xx.a(queuebuf.o)
                                                  contiki-srf06-cc26xx.a(uip-ds6-route.o)
                                                  contiki-srf06-cc26xx.a(er-coap-observe)
                                                  contiki-srf06-cc26xx.a(er-coap-transac)
                                                  obj_srf06-cc26xx/httpd-simple.o
memb_init                                         contiki-srf06-cc26xx.a(memb.o)
                                                  contiki-srf06-cc26xx.a(csma.o)
                                                  contiki-srf06-cc26xx.a(queuebuf.o)
                                                  contiki-srf06-cc26xx.a(uip-ds6-route.o)
                                                  obj_srf06-cc26xx/httpd-simple.o
memb_inmemb                                       contiki-srf06-cc26xx.a(memb.o)
                                                  contiki-srf06-cc26xx.a(queuebuf.o)
memb_numfree                                      contiki-srf06-cc26xx.a(memb.o)
                                                  contiki-srf06-cc26xx.a(queuebuf.o)
memchr                                            /home/paul/gcc-arm-none-eabi-5_2-2015q4/bin/../lib/gcc/arm-none-eabi/5.2.1/../../../../arm-none-eabi/lib/armv7-m/libc.a(lib_a-memchr-stub.o)
                                                  contiki-srf06-cc26xx.a(er-coap.o)
memcmp                                            /home/paul/gcc-arm-none-eabi-5_2-2015q4/bin/../lib/gcc/arm-none-eabi/5.2.1/../../../../arm-none-eabi/lib/armv7-m/libc.a(lib_a-memcmp.o)
                                                  contiki-srf06-cc26xx.a(linkaddr.o)
                                                  contiki-srf06-cc26xx.a(rpl-icmp6.o)
                                                  contiki-srf06-cc26xx.a(rpl-dag.o)
                                                  contiki-srf06-cc26xx.a(rpl.o)
                                                  contiki-srf06-cc26xx.a(uip-ds6-route.o)
                                                  contiki-srf06-cc26xx.a(uip-ds6-nbr.o)
                                                  contiki-srf06-cc26xx.a(uip-ds6.o)
                                                  contiki-srf06-cc26xx.a(uip6.o)
                                                  contiki-srf06-cc26xx.a(sicslowpan.o)
                                                  contiki-srf06-cc26xx.a(er-coap-observe)
                                                  obj_srf06-cc26xx/cetic-6lbr-client.o
                                                  cc26xx-web-demo.co
memcpy                                            /home/paul/gcc-arm-none-eabi-5_2-2015q4/bin/../lib/gcc/arm-none-eabi/5.2.1/../../../../arm-none-eabi/lib/armv7-m/libc.a(lib_a-memcpy.o)
                                                  contiki-srf06-cc26xx.a(er-coap.o)
                                                  contiki-srf06-cc26xx.a(packetbuf.o)
                                                  contiki-srf06-cc26xx.a(rpl-icmp6.o)
                                                  contiki-srf06-cc26xx.a(rpl-dag.o)
                                                  contiki-srf06-cc26xx.a(tcp-socket.o)
                                                  contiki-srf06-cc26xx.a(psock.o)
                                                  contiki-srf06-cc26xx.a(uip6.o)
                                                  contiki-srf06-cc26xx.a(sicslowpan.o)
                                                  contiki-srf06-cc26xx.a(dbg-sprintf.o)
                                                  contiki-srf06-cc26xx.a(dbg-snprintf.o)
                                                  contiki-srf06-cc26xx.a(ieee-mode.o)
                                                  contiki-srf06-cc26xx.a(rf-ble.o)
                                                  contiki-srf06-cc26xx.a(mqtt.o)
                                                  contiki-srf06-cc26xx.a(er-coap-observe)
                                                  obj_srf06-cc26xx/httpd-simple.o
                                                  obj_srf06-cc26xx/mqtt-client.o
                                                  obj_srf06-cc26xx/net-uart.o
                                                  obj_srf06-cc26xx/res-ble-advd.o
                                                  cc26xx-web-demo.co
memmove                                           /home/paul/gcc-arm-none-eabi-5_2-2015q4/bin/../lib/gcc/arm-none-eabi/5.2.1/../../../../arm-none-eabi/lib/armv7-m/libc.a(lib_a-memmove.o)
                                                  contiki-srf06-cc26xx.a(er-coap.o)
                                                  contiki-srf06-cc26xx.a(rpl-ext-header.)
                                                  contiki-srf06-cc26xx.a(uip-udp-packet.)
                                                  contiki-srf06-cc26xx.a(uiplib.o)
                                                  contiki-srf06-cc26xx.a(uip-icmp6.o)
                                                  contiki-srf06-cc26xx.a(uip6.o)
                                                  contiki-srf06-cc26xx.a(sicslowpan.o)
memset                                            /home/paul/gcc-arm-none-eabi-5_2-2015q4/bin/../lib/gcc/arm-none-eabi/5.2.1/../../../../arm-none-eabi/lib/armv7-m/libc.a(lib_a-memset.o)
                                                  contiki-srf06-cc26xx.a(rf-core.o)
                                                  contiki-srf06-cc26xx.a(er-coap.o)
                                                  contiki-srf06-cc26xx.a(framer-802154.o)
                                                  contiki-srf06-cc26xx.a(nbr-table.o)
                                                  contiki-srf06-cc26xx.a(rpl-icmp6.o)
                                                  contiki-srf06-cc26xx.a(rpl-dag.o)
                                                  contiki-srf06-cc26xx.a(uiplib.o)
                                                  contiki-srf06-cc26xx.a(uip-ds6.o)
                                                  contiki-srf06-cc26xx.a(sicslowpan.o)
                                                  contiki-srf06-cc26xx.a(memb.o)
                                                  contiki-srf06-cc26xx.a(ieee-mode.o)
                                                  contiki-srf06-cc26xx.a(rf-ble.o)
                                                  contiki-srf06-cc26xx.a(mqtt.o)
                                                  obj_srf06-cc26xx/httpd-simple.o
                                                  obj_srf06-cc26xx/mqtt-client.o
                                                  obj_srf06-cc26xx/net-uart.o
                                                  obj_srf06-cc26xx/res-net.o
                                                  obj_srf06-cc26xx/res-ble-advd.o
mpu_9250_sensor                                   contiki-srf06-cc26xx.a(mpu-9250-sensor)
                                                  contiki-srf06-cc26xx.a(board.o)
                                                  contiki-srf06-cc26xx.a(sensortag-senso)
                                                  cc26xx-web-demo.co
mpu_acc_x_reading                                 cc26xx-web-demo.co
mpu_acc_y_reading                                 cc26xx-web-demo.co
mpu_acc_z_reading                                 cc26xx-web-demo.co
mpu_gyro_x_reading                                cc26xx-web-demo.co
mpu_gyro_y_reading                                cc26xx-web-demo.co
mpu_gyro_z_reading                                cc26xx-web-demo.co
mpu_timer                                         cc26xx-web-demo.co
mqtt_client_process                               obj_srf06-cc26xx/mqtt-client.o
                                                  cc26xx-web-demo.co
mqtt_connect                                      contiki-srf06-cc26xx.a(mqtt.o)
                                                  obj_srf06-cc26xx/mqtt-client.o
mqtt_disconnect                                   contiki-srf06-cc26xx.a(mqtt.o)
                                                  obj_srf06-cc26xx/mqtt-client.o
mqtt_init                                         contiki-srf06-cc26xx.a(mqtt.o)
mqtt_process                                      contiki-srf06-cc26xx.a(mqtt.o)
mqtt_publish                                      contiki-srf06-cc26xx.a(mqtt.o)
                                                  obj_srf06-cc26xx/mqtt-client.o
mqtt_register                                     contiki-srf06-cc26xx.a(mqtt.o)
                                                  obj_srf06-cc26xx/mqtt-client.o
mqtt_set_last_will                                contiki-srf06-cc26xx.a(mqtt.o)
mqtt_set_username_password                        contiki-srf06-cc26xx.a(mqtt.o)
                                                  obj_srf06-cc26xx/mqtt-client.o
mqtt_subscribe                                    contiki-srf06-cc26xx.a(mqtt.o)
                                                  obj_srf06-cc26xx/mqtt-client.o
mqtt_unsubscribe                                  contiki-srf06-cc26xx.a(mqtt.o)
mqtt_update_event                                 contiki-srf06-cc26xx.a(mqtt.o)
nan                                               /home/paul/gcc-arm-none-eabi-5_2-2015q4/bin/../lib/gcc/arm-none-eabi/5.2.1/../../../../arm-none-eabi/lib/armv7-m/libm.a(lib_a-s_nan.o)
                                                  /home/paul/gcc-arm-none-eabi-5_2-2015q4/bin/../lib/gcc/arm-none-eabi/5.2.1/../../../../arm-none-eabi/lib/armv7-m/libm.a(lib_a-e_pow.o)
nbr_routes                                        contiki-srf06-cc26xx.a(uip-ds6-route.o)
nbr_table_add_lladdr                              contiki-srf06-cc26xx.a(nbr-table.o)
                                                  contiki-srf06-cc26xx.a(rpl-dag.o)
                                                  contiki-srf06-cc26xx.a(uip-ds6-route.o)
                                                  contiki-srf06-cc26xx.a(uip-ds6-nbr.o)
nbr_table_get_from_lladdr                         contiki-srf06-cc26xx.a(nbr-table.o)
                                                  contiki-srf06-cc26xx.a(rpl-ext-header.)
                                                  contiki-srf06-cc26xx.a(rpl-dag.o)
                                                  contiki-srf06-cc26xx.a(uip-ds6-route.o)
                                                  contiki-srf06-cc26xx.a(uip-ds6-nbr.o)
nbr_table_get_lladdr                              contiki-srf06-cc26xx.a(nbr-table.o)
                                                  contiki-srf06-cc26xx.a(rpl-dag.o)
                                                  contiki-srf06-cc26xx.a(uip-ds6-route.o)
                                                  contiki-srf06-cc26xx.a(uip-ds6-nbr.o)
nbr_table_head                                    contiki-srf06-cc26xx.a(nbr-table.o)
                                                  contiki-srf06-cc26xx.a(rpl-timers.o)
                                                  contiki-srf06-cc26xx.a(rpl-dag.o)
                                                  contiki-srf06-cc26xx.a(uip-ds6-nbr.o)
                                                  obj_srf06-cc26xx/httpd-simple.o
nbr_table_lock                                    contiki-srf06-cc26xx.a(nbr-table.o)
                                                  contiki-srf06-cc26xx.a(rpl-dag.o)
                                                  contiki-srf06-cc26xx.a(uip-ds6-route.o)
nbr_table_next                                    contiki-srf06-cc26xx.a(nbr-table.o)
                                                  contiki-srf06-cc26xx.a(rpl-timers.o)
                                                  contiki-srf06-cc26xx.a(rpl-dag.o)
                                                  contiki-srf06-cc26xx.a(uip-ds6-nbr.o)
                                                  obj_srf06-cc26xx/httpd-simple.o
nbr_table_register                                contiki-srf06-cc26xx.a(nbr-table.o)
                                                  contiki-srf06-cc26xx.a(rpl-dag.o)
                                                  contiki-srf06-cc26xx.a(uip-ds6-route.o)
                                                  contiki-srf06-cc26xx.a(uip-ds6-nbr.o)
nbr_table_remove                                  contiki-srf06-cc26xx.a(nbr-table.o)
                                                  contiki-srf06-cc26xx.a(rpl-dag.o)
                                                  contiki-srf06-cc26xx.a(uip-ds6-route.o)
                                                  contiki-srf06-cc26xx.a(uip-ds6-nbr.o)
nbr_table_unlock                                  contiki-srf06-cc26xx.a(nbr-table.o)
                                                  contiki-srf06-cc26xx.a(rpl-dag.o)
net_uart_process                                  obj_srf06-cc26xx/net-uart.o
                                                  cc26xx-web-demo.co
netstack_init                                     contiki-srf06-cc26xx.a(netstack.o)
                                                  contiki-srf06-cc26xx.a(contiki-main.o)
nullsec_driver                                    contiki-srf06-cc26xx.a(nullsec.o)
                                                  contiki-srf06-cc26xx.a(csma.o)
                                                  contiki-srf06-cc26xx.a(netstack.o)
                                                  contiki-srf06-cc26xx.a(sicslowpan.o)
on_off_handler                                    obj_srf06-cc26xx/net-uart.o
opt_3001_sensor                                   contiki-srf06-cc26xx.a(opt-3001-sensor)
                                                  contiki-srf06-cc26xx.a(board.o)
                                                  contiki-srf06-cc26xx.a(sensortag-senso)
                                                  cc26xx-web-demo.co
opt_reading                                       cc26xx-web-demo.co
opt_timer                                         cc26xx-web-demo.co
org_id_handler                                    obj_srf06-cc26xx/mqtt-client.o
oscillators_request_hf_xosc                       contiki-srf06-cc26xx.a(oscillators.o)
                                                  contiki-srf06-cc26xx.a(ieee-mode.o)
                                                  contiki-srf06-cc26xx.a(rf-ble.o)
oscillators_select_lf_rcosc                       contiki-srf06-cc26xx.a(oscillators.o)
                                                  contiki-srf06-cc26xx.a(lpm.o)
oscillators_select_lf_xosc                        contiki-srf06-cc26xx.a(oscillators.o)
                                                  contiki-srf06-cc26xx.a(contiki-main.o)
oscillators_switch_to_hf_rc                       contiki-srf06-cc26xx.a(oscillators.o)
                                                  contiki-srf06-cc26xx.a(ieee-mode.o)
                                                  contiki-srf06-cc26xx.a(rf-ble.o)
                                                  contiki-srf06-cc26xx.a(lpm.o)
oscillators_switch_to_hf_xosc                     contiki-srf06-cc26xx.a(oscillators.o)
                                                  contiki-srf06-cc26xx.a(ieee-mode.o)
                                                  contiki-srf06-cc26xx.a(rf-ble.o)
packetbuf_addr                                    contiki-srf06-cc26xx.a(packetbuf.o)
                                                  contiki-srf06-cc26xx.a(mac-sequence.o)
                                                  contiki-srf06-cc26xx.a(contikimac.o)
                                                  contiki-srf06-cc26xx.a(framer-802154.o)
                                                  contiki-srf06-cc26xx.a(csma.o)
                                                  contiki-srf06-cc26xx.a(rpl-icmp6.o)
                                                  contiki-srf06-cc26xx.a(rpl-ext-header.)
                                                  contiki-srf06-cc26xx.a(uip-ds6-nbr.o)
                                                  contiki-srf06-cc26xx.a(sicslowpan.o)
packetbuf_addrs                                   contiki-srf06-cc26xx.a(packetbuf.o)
packetbuf_attr                                    contiki-srf06-cc26xx.a(packetbuf.o)
                                                  contiki-srf06-cc26xx.a(mac-sequence.o)
                                                  contiki-srf06-cc26xx.a(contikimac.o)
                                                  contiki-srf06-cc26xx.a(framer-802154.o)
                                                  contiki-srf06-cc26xx.a(csma.o)
                                                  contiki-srf06-cc26xx.a(sicslowpan.o)
packetbuf_attr_clear                              contiki-srf06-cc26xx.a(packetbuf.o)
packetbuf_attr_copyfrom                           contiki-srf06-cc26xx.a(packetbuf.o)
                                                  contiki-srf06-cc26xx.a(queuebuf.o)
packetbuf_attr_copyto                             contiki-srf06-cc26xx.a(packetbuf.o)
                                                  contiki-srf06-cc26xx.a(queuebuf.o)
packetbuf_attrs                                   contiki-srf06-cc26xx.a(packetbuf.o)
packetbuf_clear                                   contiki-srf06-cc26xx.a(packetbuf.o)
                                                  contiki-srf06-cc26xx.a(rf-core.o)
                                                  contiki-srf06-cc26xx.a(sicslowpan.o)
packetbuf_clear_hdr                               contiki-srf06-cc26xx.a(packetbuf.o)
packetbuf_compact                                 contiki-srf06-cc26xx.a(packetbuf.o)
packetbuf_copyfrom                                contiki-srf06-cc26xx.a(packetbuf.o)
                                                  contiki-srf06-cc26xx.a(queuebuf.o)
packetbuf_copyto                                  contiki-srf06-cc26xx.a(packetbuf.o)
                                                  contiki-srf06-cc26xx.a(queuebuf.o)
packetbuf_copyto_hdr                              contiki-srf06-cc26xx.a(packetbuf.o)
packetbuf_datalen                                 contiki-srf06-cc26xx.a(packetbuf.o)
                                                  contiki-srf06-cc26xx.a(contikimac.o)
                                                  contiki-srf06-cc26xx.a(framer-802154.o)
                                                  contiki-srf06-cc26xx.a(sicslowpan.o)
packetbuf_dataptr                                 contiki-srf06-cc26xx.a(packetbuf.o)
                                                  contiki-srf06-cc26xx.a(rf-core.o)
                                                  contiki-srf06-cc26xx.a(framer-802154.o)
                                                  contiki-srf06-cc26xx.a(sicslowpan.o)
packetbuf_hdr_remove                              contiki-srf06-cc26xx.a(packetbuf.o)
packetbuf_hdralloc                                contiki-srf06-cc26xx.a(packetbuf.o)
                                                  contiki-srf06-cc26xx.a(framer-802154.o)
packetbuf_hdrlen                                  contiki-srf06-cc26xx.a(packetbuf.o)
packetbuf_hdrptr                                  contiki-srf06-cc26xx.a(packetbuf.o)
                                                  contiki-srf06-cc26xx.a(contikimac.o)
                                                  contiki-srf06-cc26xx.a(framer-802154.o)
packetbuf_hdrreduce                               contiki-srf06-cc26xx.a(packetbuf.o)
                                                  contiki-srf06-cc26xx.a(framer-802154.o)
packetbuf_holds_broadcast                         contiki-srf06-cc26xx.a(packetbuf.o)
                                                  contiki-srf06-cc26xx.a(contikimac.o)
                                                  contiki-srf06-cc26xx.a(framer-802154.o)
packetbuf_set_addr                                contiki-srf06-cc26xx.a(packetbuf.o)
                                                  contiki-srf06-cc26xx.a(contikimac.o)
                                                  contiki-srf06-cc26xx.a(framer-802154.o)
                                                  contiki-srf06-cc26xx.a(sicslowpan.o)
packetbuf_set_attr                                contiki-srf06-cc26xx.a(packetbuf.o)
                                                  contiki-srf06-cc26xx.a(nullsec.o)
                                                  contiki-srf06-cc26xx.a(contikimac.o)
                                                  contiki-srf06-cc26xx.a(framer-802154.o)
                                                  contiki-srf06-cc26xx.a(csma.o)
                                                  contiki-srf06-cc26xx.a(sicslowpan.o)
                                                  contiki-srf06-cc26xx.a(ieee-mode.o)
packetbuf_set_datalen                             contiki-srf06-cc26xx.a(packetbuf.o)
                                                  contiki-srf06-cc26xx.a(rf-core.o)
                                                  contiki-srf06-cc26xx.a(sicslowpan.o)
packetbuf_totlen                                  contiki-srf06-cc26xx.a(packetbuf.o)
                                                  contiki-srf06-cc26xx.a(contikimac.o)
ping_interval_handler                             cc26xx-web-demo.co
port_handler                                      obj_srf06-cc26xx/mqtt-client.o
pow                                               /home/paul/gcc-arm-none-eabi-5_2-2015q4/bin/../lib/gcc/arm-none-eabi/5.2.1/../../../../arm-none-eabi/lib/armv7-m/libm.a(lib_a-w_pow.o)
                                                  /home/paul/gcc-arm-none-eabi-5_2-2015q4/bin/../lib/gcc/arm-none-eabi/5.2.1/../../../../arm-none-eabi/lib/armv7-m/libm.a(lib_a-w_exp2.o)
printf                                            contiki-srf06-cc26xx.a(dbg-printf.o)
                                                  contiki-srf06-cc26xx.a(rpl-dag.o)
                                                  contiki-srf06-cc26xx.a(uip-debug.o)
                                                  contiki-srf06-cc26xx.a(tcp-socket.o)
                                                  contiki-srf06-cc26xx.a(contiki-main.o)
                                                  obj_srf06-cc26xx/mqtt-client.o
                                                  obj_srf06-cc26xx/net-uart.o
process_alloc_event                               contiki-srf06-cc26xx.a(process.o)
                                                  contiki-srf06-cc26xx.a(tcpip.o)
                                                  contiki-srf06-cc26xx.a(serial-line.o)
                                                  contiki-srf06-cc26xx.a(sensors.o)
                                                  contiki-srf06-cc26xx.a(mqtt.o)
                                                  obj_srf06-cc26xx/httpd-simple.o
                                                  cc26xx-web-demo.co
process_current                                   contiki-srf06-cc26xx.a(process.o)
                                                  contiki-srf06-cc26xx.a(tcp-socket.o)
                                                  contiki-srf06-cc26xx.a(tcpip.o)
                                                  contiki-srf06-cc26xx.a(serial-line.o)
                                                  contiki-srf06-cc26xx.a(etimer.o)
                                                  contiki-srf06-cc26xx.a(ctimer.o)
                                                  contiki-srf06-cc26xx.a(mqtt.o)
                                                  contiki-srf06-cc26xx.a(rest-engine.o)
                                                  contiki-srf06-cc26xx.a(er-coap-transac)
                                                  contiki-srf06-cc26xx.a(er-coap-engine.)
process_exit                                      contiki-srf06-cc26xx.a(process.o)
                                                  contiki-srf06-cc26xx.a(autostart.o)
                                                  contiki-srf06-cc26xx.a(rf-ble.o)
process_init                                      contiki-srf06-cc26xx.a(process.o)
                                                  contiki-srf06-cc26xx.a(contiki-main.o)
process_is_running                                contiki-srf06-cc26xx.a(process.o)
process_list                                      contiki-srf06-cc26xx.a(process.o)
process_nevents                                   contiki-srf06-cc26xx.a(process.o)
                                                  contiki-srf06-cc26xx.a(lpm.o)
process_poll                                      contiki-srf06-cc26xx.a(process.o)
                                                  contiki-srf06-cc26xx.a(rf-core.o)
                                                  contiki-srf06-cc26xx.a(serial-line.o)
                                                  contiki-srf06-cc26xx.a(etimer.o)
                                                  contiki-srf06-cc26xx.a(ieee-mode.o)
                                                  contiki-srf06-cc26xx.a(sensors.o)
                                                  contiki-srf06-cc26xx.a(er-coap-engine.)
                                                  obj_srf06-cc26xx/mqtt-client.o
process_post                                      contiki-srf06-cc26xx.a(process.o)
                                                  contiki-srf06-cc26xx.a(tcpip.o)
                                                  contiki-srf06-cc26xx.a(serial-line.o)
                                                  contiki-srf06-cc26xx.a(etimer.o)
                                                  contiki-srf06-cc26xx.a(sensors.o)
                                                  contiki-srf06-cc26xx.a(mqtt.o)
                                                  contiki-srf06-cc26xx.a(rest-engine.o)
                                                  obj_srf06-cc26xx/httpd-simple.o
                                                  cc26xx-web-demo.co
process_post_synch                                contiki-srf06-cc26xx.a(process.o)
                                                  contiki-srf06-cc26xx.a(tcpip.o)
                                                  cc26xx-web-demo.co
process_run                                       contiki-srf06-cc26xx.a(process.o)
                                                  contiki-srf06-cc26xx.a(contiki-main.o)
process_start                                     contiki-srf06-cc26xx.a(process.o)
                                                  contiki-srf06-cc26xx.a(tcp-socket.o)
                                                  contiki-srf06-cc26xx.a(serial-line.o)
                                                  contiki-srf06-cc26xx.a(ctimer.o)
                                                  contiki-srf06-cc26xx.a(autostart.o)
                                                  contiki-srf06-cc26xx.a(ieee-mode.o)
                                                  contiki-srf06-cc26xx.a(rf-ble.o)
                                                  contiki-srf06-cc26xx.a(contiki-main.o)
                                                  contiki-srf06-cc26xx.a(mqtt.o)
                                                  contiki-srf06-cc26xx.a(rest-engine.o)
                                                  contiki-srf06-cc26xx.a(er-coap-engine.)
                                                  cc26xx-web-demo.co
psock_datalen                                     contiki-srf06-cc26xx.a(psock.o)
                                                  obj_srf06-cc26xx/httpd-simple.o
psock_generator_send                              contiki-srf06-cc26xx.a(psock.o)
psock_init                                        contiki-srf06-cc26xx.a(psock.o)
                                                  obj_srf06-cc26xx/httpd-simple.o
psock_newdata                                     contiki-srf06-cc26xx.a(psock.o)
psock_readbuf_len                                 contiki-srf06-cc26xx.a(psock.o)
                                                  obj_srf06-cc26xx/httpd-simple.o
psock_readto                                      contiki-srf06-cc26xx.a(psock.o)
                                                  obj_srf06-cc26xx/httpd-simple.o
psock_send                                        contiki-srf06-cc26xx.a(psock.o)
                                                  obj_srf06-cc26xx/httpd-simple.o
putchar                                           contiki-srf06-cc26xx.a(putchar.o)
                                                  contiki-srf06-cc26xx.a(uip-debug.o)
                                                  contiki-srf06-cc26xx.a(contiki-main.o)
puts                                              contiki-srf06-cc26xx.a(putchar.o)
                                                  contiki-srf06-cc26xx.a(rf-core.o)
                                                  contiki-srf06-cc26xx.a(rpl-dag.o)
                                                  contiki-srf06-cc26xx.a(contiki-main.o)
                                                  obj_srf06-cc26xx/httpd-simple.o
                                                  obj_srf06-cc26xx/mqtt-client.o
                                                  obj_srf06-cc26xx/net-uart.o
                                                  obj_srf06-cc26xx/coap-server.o
                                                  obj_srf06-cc26xx/cetic-6lbr-client.o
                                                  cc26xx-web-demo.co
queuebuf_addr                                     contiki-srf06-cc26xx.a(queuebuf.o)
queuebuf_attr                                     contiki-srf06-cc26xx.a(queuebuf.o)
                                                  contiki-srf06-cc26xx.a(csma.o)
queuebuf_datalen                                  contiki-srf06-cc26xx.a(queuebuf.o)
queuebuf_dataptr                                  contiki-srf06-cc26xx.a(queuebuf.o)
queuebuf_debug_print                              contiki-srf06-cc26xx.a(queuebuf.o)
queuebuf_free                                     contiki-srf06-cc26xx.a(queuebuf.o)
                                                  contiki-srf06-cc26xx.a(csma.o)
                                                  contiki-srf06-cc26xx.a(sicslowpan.o)
queuebuf_init                                     contiki-srf06-cc26xx.a(queuebuf.o)
                                                  contiki-srf06-cc26xx.a(contiki-main.o)
queuebuf_new_from_packetbuf                       contiki-srf06-cc26xx.a(queuebuf.o)
                                                  contiki-srf06-cc26xx.a(csma.o)
                                                  contiki-srf06-cc26xx.a(sicslowpan.o)
queuebuf_numfree                                  contiki-srf06-cc26xx.a(queuebuf.o)
                                                  contiki-srf06-cc26xx.a(sicslowpan.o)
queuebuf_to_packetbuf                             contiki-srf06-cc26xx.a(queuebuf.o)
                                                  contiki-srf06-cc26xx.a(contikimac.o)
                                                  contiki-srf06-cc26xx.a(sicslowpan.o)
queuebuf_update_attr_from_packetbuf               contiki-srf06-cc26xx.a(queuebuf.o)
                                                  contiki-srf06-cc26xx.a(csma.o)
queuebuf_update_from_packetbuf                    contiki-srf06-cc26xx.a(queuebuf.o)
                                                  contiki-srf06-cc26xx.a(contikimac.o)
rand                                              /home/paul/gcc-arm-none-eabi-5_2-2015q4/bin/../lib/gcc/arm-none-eabi/5.2.1/../../../../arm-none-eabi/lib/armv7-m/libc.a(lib_a-rand.o)
                                                  contiki-srf06-cc26xx.a(random.o)
random_init                                       contiki-srf06-cc26xx.a(random.o)
                                                  contiki-srf06-cc26xx.a(contiki-main.o)
random_rand                                       contiki-srf06-cc26xx.a(random.o)
                                                  contiki-srf06-cc26xx.a(er-coap.o)
                                                  contiki-srf06-cc26xx.a(framer-802154.o)
                                                  contiki-srf06-cc26xx.a(csma.o)
                                                  contiki-srf06-cc26xx.a(rpl-timers.o)
                                                  contiki-srf06-cc26xx.a(uip-ds6.o)
                                                  contiki-srf06-cc26xx.a(er-coap-transac)
                                                  cc26xx-web-demo.co
reconnect_handler                                 obj_srf06-cc26xx/mqtt-client.o
reed_relay_sensor                                 contiki-srf06-cc26xx.a(reed-relay.o)
                                                  contiki-srf06-cc26xx.a(sensortag-senso)
                                                  obj_srf06-cc26xx/mqtt-client.o
                                                  cc26xx-web-demo.co
remote_ipv6_handler                               obj_srf06-cc26xx/net-uart.o
remote_port_handler                               obj_srf06-cc26xx/net-uart.o
remove_ext_hdr                                    contiki-srf06-cc26xx.a(uip6.o)
res_batmon_temp                                   obj_srf06-cc26xx/res-sensors.o
                                                  obj_srf06-cc26xx/coap-server.o
res_batmon_volt                                   obj_srf06-cc26xx/res-sensors.o
                                                  obj_srf06-cc26xx/coap-server.o
res_ble_advd                                      obj_srf06-cc26xx/res-ble-advd.o
                                                  obj_srf06-cc26xx/coap-server.o
res_bmp280_press                                  obj_srf06-cc26xx/res-sensors.o
                                                  obj_srf06-cc26xx/coap-server.o
res_bmp280_temp                                   obj_srf06-cc26xx/res-sensors.o
                                                  obj_srf06-cc26xx/coap-server.o
res_device_cfg_reset                              obj_srf06-cc26xx/res-device.o
                                                  obj_srf06-cc26xx/coap-server.o
res_device_hw                                     obj_srf06-cc26xx/res-device.o
                                                  obj_srf06-cc26xx/coap-server.o
res_device_sw                                     obj_srf06-cc26xx/res-device.o
                                                  obj_srf06-cc26xx/coap-server.o
res_device_uptime                                 obj_srf06-cc26xx/res-device.o
                                                  obj_srf06-cc26xx/coap-server.o
res_hdc1000_hum                                   obj_srf06-cc26xx/res-sensors.o
                                                  obj_srf06-cc26xx/coap-server.o
res_hdc1000_temp                                  obj_srf06-cc26xx/res-sensors.o
                                                  obj_srf06-cc26xx/coap-server.o
res_leds                                          obj_srf06-cc26xx/res-leds.o
                                                  obj_srf06-cc26xx/coap-server.o
res_mpu_acc_x                                     obj_srf06-cc26xx/res-sensors.o
                                                  obj_srf06-cc26xx/coap-server.o
res_mpu_acc_y                                     obj_srf06-cc26xx/res-sensors.o
                                                  obj_srf06-cc26xx/coap-server.o
res_mpu_acc_z                                     obj_srf06-cc26xx/res-sensors.o
                                                  obj_srf06-cc26xx/coap-server.o
res_mpu_gyro_x                                    obj_srf06-cc26xx/res-sensors.o
                                                  obj_srf06-cc26xx/coap-server.o
res_mpu_gyro_y                                    obj_srf06-cc26xx/res-sensors.o
                                                  obj_srf06-cc26xx/coap-server.o
res_mpu_gyro_z                                    obj_srf06-cc26xx/res-sensors.o
                                                  obj_srf06-cc26xx/coap-server.o
res_opt3001_light                                 obj_srf06-cc26xx/res-sensors.o
                                                  obj_srf06-cc26xx/coap-server.o
res_parent_ip                                     obj_srf06-cc26xx/res-net.o
                                                  obj_srf06-cc26xx/coap-server.o
res_parent_rssi                                   obj_srf06-cc26xx/res-net.o
                                                  obj_srf06-cc26xx/coap-server.o
res_tmp007_amb                                    obj_srf06-cc26xx/res-sensors.o
                                                  obj_srf06-cc26xx/coap-server.o
res_tmp007_obj                                    obj_srf06-cc26xx/res-sensors.o
                                                  obj_srf06-cc26xx/coap-server.o
res_toggle_green                                  obj_srf06-cc26xx/res-toggle-leds.o
                                                  obj_srf06-cc26xx/coap-server.o
res_toggle_red                                    obj_srf06-cc26xx/res-toggle-leds.o
                                                  obj_srf06-cc26xx/coap-server.o
res_well_known_core                               contiki-srf06-cc26xx.a(er-coap-res-wel)
                                                  contiki-srf06-cc26xx.a(er-coap-engine.)
rest_activate_resource                            contiki-srf06-cc26xx.a(rest-engine.o)
                                                  contiki-srf06-cc26xx.a(er-coap-engine.)
                                                  obj_srf06-cc26xx/coap-server.o
rest_engine_process                               contiki-srf06-cc26xx.a(rest-engine.o)
rest_get_resources                                contiki-srf06-cc26xx.a(rest-engine.o)
                                                  contiki-srf06-cc26xx.a(er-coap-res-wel)
rest_init_engine                                  contiki-srf06-cc26xx.a(rest-engine.o)
                                                  obj_srf06-cc26xx/coap-server.o
rest_invoke_restful_service                       contiki-srf06-cc26xx.a(rest-engine.o)
rf_ble_beacon_process                             contiki-srf06-cc26xx.a(rf-ble.o)
rf_ble_beacond_config                             contiki-srf06-cc26xx.a(rf-ble.o)
                                                  obj_srf06-cc26xx/res-ble-advd.o
rf_ble_beacond_start                              contiki-srf06-cc26xx.a(rf-ble.o)
                                                  obj_srf06-cc26xx/res-ble-advd.o
rf_ble_beacond_stop                               contiki-srf06-cc26xx.a(rf-ble.o)
                                                  obj_srf06-cc26xx/res-ble-advd.o
rf_ble_is_active                                  contiki-srf06-cc26xx.a(rf-ble.o)
                                                  contiki-srf06-cc26xx.a(ieee-mode.o)
rf_core_boot                                      contiki-srf06-cc26xx.a(rf-core.o)
                                                  contiki-srf06-cc26xx.a(ieee-mode.o)
                                                  contiki-srf06-cc26xx.a(rf-ble.o)
rf_core_cmd_done_dis                              contiki-srf06-cc26xx.a(rf-core.o)
                                                  contiki-srf06-cc26xx.a(ieee-mode.o)
rf_core_cmd_done_en                               contiki-srf06-cc26xx.a(rf-core.o)
                                                  contiki-srf06-cc26xx.a(ieee-mode.o)
rf_core_get_last_radio_op                         contiki-srf06-cc26xx.a(rf-core.o)
                                                  contiki-srf06-cc26xx.a(ieee-mode.o)
rf_core_init_radio_op                             contiki-srf06-cc26xx.a(rf-core.o)
                                                  contiki-srf06-cc26xx.a(ieee-mode.o)
                                                  contiki-srf06-cc26xx.a(rf-ble.o)
rf_core_is_accessible                             contiki-srf06-cc26xx.a(rf-core.o)
                                                  contiki-srf06-cc26xx.a(ieee-mode.o)
                                                  contiki-srf06-cc26xx.a(rf-ble.o)
rf_core_power_down                                contiki-srf06-cc26xx.a(rf-core.o)
                                                  contiki-srf06-cc26xx.a(ieee-mode.o)
                                                  contiki-srf06-cc26xx.a(rf-ble.o)
rf_core_power_up                                  contiki-srf06-cc26xx.a(rf-core.o)
rf_core_primary_mode_abort                        contiki-srf06-cc26xx.a(rf-core.o)
                                                  contiki-srf06-cc26xx.a(rf-ble.o)
rf_core_primary_mode_register                     contiki-srf06-cc26xx.a(rf-core.o)
                                                  contiki-srf06-cc26xx.a(ieee-mode.o)
rf_core_primary_mode_restore                      contiki-srf06-cc26xx.a(rf-core.o)
                                                  contiki-srf06-cc26xx.a(rf-ble.o)
rf_core_process                                   contiki-srf06-cc26xx.a(rf-core.o)
                                                  contiki-srf06-cc26xx.a(ieee-mode.o)
rf_core_send_cmd                                  contiki-srf06-cc26xx.a(rf-core.o)
                                                  contiki-srf06-cc26xx.a(ieee-mode.o)
                                                  contiki-srf06-cc26xx.a(rf-ble.o)
rf_core_set_modesel                               contiki-srf06-cc26xx.a(rf-core.o)
                                                  contiki-srf06-cc26xx.a(ieee-mode.o)
rf_core_setup_interrupts                          contiki-srf06-cc26xx.a(rf-core.o)
                                                  contiki-srf06-cc26xx.a(ieee-mode.o)
rf_core_start_rat                                 contiki-srf06-cc26xx.a(rf-core.o)
rf_core_wait_cmd_done                             contiki-srf06-cc26xx.a(rf-core.o)
                                                  contiki-srf06-cc26xx.a(ieee-mode.o)
                                                  contiki-srf06-cc26xx.a(rf-ble.o)
rime_sniffer_add                                  contiki-srf06-cc26xx.a(sicslowpan.o)
rime_sniffer_remove                               contiki-srf06-cc26xx.a(sicslowpan.o)
ringbuf_elements                                  contiki-srf06-cc26xx.a(ringbuf.o)
ringbuf_get                                       contiki-srf06-cc26xx.a(ringbuf.o)
                                                  contiki-srf06-cc26xx.a(serial-line.o)
ringbuf_init                                      contiki-srf06-cc26xx.a(ringbuf.o)
                                                  contiki-srf06-cc26xx.a(serial-line.o)
ringbuf_put                                       contiki-srf06-cc26xx.a(ringbuf.o)
                                                  contiki-srf06-cc26xx.a(serial-line.o)
ringbuf_size                                      contiki-srf06-cc26xx.a(ringbuf.o)
rint                                              /home/paul/gcc-arm-none-eabi-5_2-2015q4/bin/../lib/gcc/arm-none-eabi/5.2.1/../../../../arm-none-eabi/lib/armv7-m/libm.a(lib_a-s_rint.o)
                                                  /home/paul/gcc-arm-none-eabi-5_2-2015q4/bin/../lib/gcc/arm-none-eabi/5.2.1/../../../../arm-none-eabi/lib/armv7-m/libm.a(lib_a-w_pow.o)
rpl_add_dag                                       contiki-srf06-cc26xx.a(rpl-dag.o)
rpl_add_parent                                    contiki-srf06-cc26xx.a(rpl-dag.o)
rpl_add_route                                     contiki-srf06-cc26xx.a(rpl.o)
                                                  contiki-srf06-cc26xx.a(rpl-icmp6.o)
rpl_alloc_dag                                     contiki-srf06-cc26xx.a(rpl-dag.o)
rpl_alloc_instance                                contiki-srf06-cc26xx.a(rpl-dag.o)
rpl_cancel_dao                                    contiki-srf06-cc26xx.a(rpl-timers.o)
                                                  contiki-srf06-cc26xx.a(rpl.o)
rpl_dag_init                                      contiki-srf06-cc26xx.a(rpl-dag.o)
                                                  contiki-srf06-cc26xx.a(rpl.o)
rpl_find_of                                       contiki-srf06-cc26xx.a(rpl-dag.o)
rpl_find_parent                                   contiki-srf06-cc26xx.a(rpl-dag.o)
                                                  contiki-srf06-cc26xx.a(rpl-icmp6.o)
                                                  contiki-srf06-cc26xx.a(rpl-ext-header.)
rpl_find_parent_any_dag                           contiki-srf06-cc26xx.a(rpl-dag.o)
                                                  contiki-srf06-cc26xx.a(rpl.o)
rpl_free_dag                                      contiki-srf06-cc26xx.a(rpl-dag.o)
                                                  contiki-srf06-cc26xx.a(rpl.o)
rpl_free_instance                                 contiki-srf06-cc26xx.a(rpl-dag.o)
rpl_get_any_dag                                   contiki-srf06-cc26xx.a(rpl-dag.o)
                                                  contiki-srf06-cc26xx.a(rpl-timers.o)
                                                  obj_srf06-cc26xx/cetic-6lbr-client.o
rpl_get_default_instance                          contiki-srf06-cc26xx.a(rpl-dag.o)
rpl_get_instance                                  contiki-srf06-cc26xx.a(rpl-dag.o)
                                                  contiki-srf06-cc26xx.a(rpl-icmp6.o)
                                                  contiki-srf06-cc26xx.a(rpl-ext-header.)
rpl_get_mode                                      contiki-srf06-cc26xx.a(rpl.o)
                                                  contiki-srf06-cc26xx.a(rpl-timers.o)
                                                  contiki-srf06-cc26xx.a(rpl-icmp6.o)
rpl_get_nbr                                       contiki-srf06-cc26xx.a(rpl-dag.o)
                                                  contiki-srf06-cc26xx.a(rpl-mrhof.o)
rpl_get_parent                                    contiki-srf06-cc26xx.a(rpl-dag.o)
                                                  contiki-srf06-cc26xx.a(rpl-ext-header.)
rpl_get_parent_ipaddr                             contiki-srf06-cc26xx.a(rpl-dag.o)
                                                  contiki-srf06-cc26xx.a(rpl-timers.o)
                                                  contiki-srf06-cc26xx.a(rpl-icmp6.o)
rpl_get_parent_link_metric                        contiki-srf06-cc26xx.a(rpl-dag.o)
rpl_get_parent_rank                               contiki-srf06-cc26xx.a(rpl-dag.o)
rpl_icmp6_register_handlers                       contiki-srf06-cc26xx.a(rpl-icmp6.o)
                                                  contiki-srf06-cc26xx.a(rpl.o)
rpl_init                                          contiki-srf06-cc26xx.a(rpl.o)
                                                  contiki-srf06-cc26xx.a(tcpip.o)
rpl_insert_header                                 contiki-srf06-cc26xx.a(rpl-ext-header.)
                                                  contiki-srf06-cc26xx.a(uip6.o)
rpl_invert_header                                 contiki-srf06-cc26xx.a(rpl-ext-header.)
                                                  contiki-srf06-cc26xx.a(uip-icmp6.o)
rpl_ipv6_neighbor_callback                        contiki-srf06-cc26xx.a(rpl.o)
                                                  contiki-srf06-cc26xx.a(uip-ds6-nbr.o)
rpl_join_instance                                 contiki-srf06-cc26xx.a(rpl-dag.o)
rpl_link_neighbor_callback                        contiki-srf06-cc26xx.a(rpl.o)
                                                  contiki-srf06-cc26xx.a(uip-ds6-nbr.o)
rpl_local_repair                                  contiki-srf06-cc26xx.a(rpl-dag.o)
rpl_move_parent                                   contiki-srf06-cc26xx.a(rpl-dag.o)
rpl_mrhof                                         contiki-srf06-cc26xx.a(rpl-mrhof.o)
                                                  contiki-srf06-cc26xx.a(rpl-icmp6.o)
                                                  contiki-srf06-cc26xx.a(rpl-dag.o)
                                                  contiki-srf06-cc26xx.a(rpl.o)
rpl_nullify_parent                                contiki-srf06-cc26xx.a(rpl-dag.o)
rpl_parents                                       contiki-srf06-cc26xx.a(rpl-dag.o)
                                                  contiki-srf06-cc26xx.a(rpl-timers.o)
                                                  contiki-srf06-cc26xx.a(rpl-ext-header.)
rpl_print_neighbor_list                           contiki-srf06-cc26xx.a(rpl-dag.o)
rpl_process_dio                                   contiki-srf06-cc26xx.a(rpl-dag.o)
                                                  contiki-srf06-cc26xx.a(rpl-icmp6.o)
rpl_process_parent_event                          contiki-srf06-cc26xx.a(rpl-dag.o)
rpl_purge_dags                                    contiki-srf06-cc26xx.a(rpl.o)
                                                  contiki-srf06-cc26xx.a(rpl-timers.o)
rpl_purge_routes                                  contiki-srf06-cc26xx.a(rpl.o)
                                                  contiki-srf06-cc26xx.a(rpl-timers.o)
rpl_recalculate_ranks                             contiki-srf06-cc26xx.a(rpl-dag.o)
                                                  contiki-srf06-cc26xx.a(rpl-timers.o)
rpl_remove_header                                 contiki-srf06-cc26xx.a(rpl-ext-header.)
rpl_remove_parent                                 contiki-srf06-cc26xx.a(rpl-dag.o)
rpl_remove_routes                                 contiki-srf06-cc26xx.a(rpl.o)
                                                  contiki-srf06-cc26xx.a(rpl-dag.o)
rpl_remove_routes_by_nexthop                      contiki-srf06-cc26xx.a(rpl.o)
                                                  contiki-srf06-cc26xx.a(rpl-dag.o)
rpl_repair_root                                   contiki-srf06-cc26xx.a(rpl-dag.o)
                                                  contiki-srf06-cc26xx.a(tcpip.o)
rpl_reset_dio_timer                               contiki-srf06-cc26xx.a(rpl-timers.o)
                                                  contiki-srf06-cc26xx.a(rpl-icmp6.o)
                                                  contiki-srf06-cc26xx.a(rpl-ext-header.)
                                                  contiki-srf06-cc26xx.a(rpl-dag.o)
rpl_reset_periodic_timer                          contiki-srf06-cc26xx.a(rpl-timers.o)
                                                  contiki-srf06-cc26xx.a(rpl.o)
rpl_schedule_dao                                  contiki-srf06-cc26xx.a(rpl-timers.o)
                                                  contiki-srf06-cc26xx.a(rpl-dag.o)
rpl_schedule_dao_immediately                      contiki-srf06-cc26xx.a(rpl-timers.o)
                                                  contiki-srf06-cc26xx.a(rpl.o)
rpl_schedule_probing                              contiki-srf06-cc26xx.a(rpl-timers.o)
                                                  contiki-srf06-cc26xx.a(rpl-dag.o)
rpl_schedule_unicast_dio_immediately              contiki-srf06-cc26xx.a(rpl-timers.o)
                                                  contiki-srf06-cc26xx.a(rpl-ext-header.)
rpl_select_dag                                    contiki-srf06-cc26xx.a(rpl-dag.o)
                                                  contiki-srf06-cc26xx.a(rpl-ext-header.)
rpl_select_parent                                 contiki-srf06-cc26xx.a(rpl-dag.o)
rpl_set_default_instance                          contiki-srf06-cc26xx.a(rpl-dag.o)
rpl_set_default_route                             contiki-srf06-cc26xx.a(rpl-dag.o)
rpl_set_mode                                      contiki-srf06-cc26xx.a(rpl.o)
rpl_set_prefix                                    contiki-srf06-cc26xx.a(rpl-dag.o)
rpl_set_root                                      contiki-srf06-cc26xx.a(rpl-dag.o)
rpl_update_header_empty                           contiki-srf06-cc26xx.a(rpl-ext-header.)
                                                  contiki-srf06-cc26xx.a(uip6.o)
rpl_update_header_final                           contiki-srf06-cc26xx.a(rpl-ext-header.)
                                                  contiki-srf06-cc26xx.a(tcpip.o)
rpl_verify_header                                 contiki-srf06-cc26xx.a(rpl-ext-header.)
                                                  contiki-srf06-cc26xx.a(uip6.o)
rtimer_arch_init                                  contiki-srf06-cc26xx.a(rtimer-arch.o)
                                                  contiki-srf06-cc26xx.a(rtimer.o)
rtimer_arch_now                                   contiki-srf06-cc26xx.a(rtimer-arch.o)
                                                  contiki-srf06-cc26xx.a(contikimac.o)
                                                  contiki-srf06-cc26xx.a(ieee-mode.o)
                                                  contiki-srf06-cc26xx.a(lpm.o)
                                                  contiki-srf06-cc26xx.a(soc-rtc.o)
                                                  contiki-srf06-cc26xx.a(mpu-9250-sensor)
rtimer_arch_schedule                              contiki-srf06-cc26xx.a(rtimer-arch.o)
                                                  contiki-srf06-cc26xx.a(rtimer.o)
rtimer_init                                       contiki-srf06-cc26xx.a(rtimer.o)
                                                  contiki-srf06-cc26xx.a(contiki-main.o)
rtimer_run_next                                   contiki-srf06-cc26xx.a(rtimer.o)
                                                  contiki-srf06-cc26xx.a(soc-rtc.o)
rtimer_set                                        contiki-srf06-cc26xx.a(rtimer.o)
                                                  contiki-srf06-cc26xx.a(contikimac.o)
scalbn                                            /home/paul/gcc-arm-none-eabi-5_2-2015q4/bin/../lib/gcc/arm-none-eabi/5.2.1/../../../../arm-none-eabi/lib/armv7-m/libm.a(lib_a-s_scalbn.o)
                                                  /home/paul/gcc-arm-none-eabi-5_2-2015q4/bin/../lib/gcc/arm-none-eabi/5.2.1/../../../../arm-none-eabi/lib/armv7-m/libm.a(lib_a-e_pow.o)
sensor_common_read_reg                            contiki-srf06-cc26xx.a(sensor-common.o)
                                                  contiki-srf06-cc26xx.a(mpu-9250-sensor)
                                                  contiki-srf06-cc26xx.a(opt-3001-sensor)
                                                  contiki-srf06-cc26xx.a(tmp-007-sensor.)
                                                  contiki-srf06-cc26xx.a(bmp-280-sensor.)
sensor_common_set_error_data                      contiki-srf06-cc26xx.a(sensor-common.o)
                                                  contiki-srf06-cc26xx.a(mpu-9250-sensor)
                                                  contiki-srf06-cc26xx.a(opt-3001-sensor)
                                                  contiki-srf06-cc26xx.a(tmp-007-sensor.)
                                                  contiki-srf06-cc26xx.a(bmp-280-sensor.)
sensor_common_write_reg                           contiki-srf06-cc26xx.a(sensor-common.o)
                                                  contiki-srf06-cc26xx.a(mpu-9250-sensor)
                                                  contiki-srf06-cc26xx.a(hdc-1000-sensor)
                                                  contiki-srf06-cc26xx.a(opt-3001-sensor)
                                                  contiki-srf06-cc26xx.a(tmp-007-sensor.)
                                                  contiki-srf06-cc26xx.a(bmp-280-sensor.)
sensor_handler                                    cc26xx-web-demo.co
sensors                                           contiki-srf06-cc26xx.a(sensortag-senso)
                                                  contiki-srf06-cc26xx.a(sensors.o)
sensors_changed                                   contiki-srf06-cc26xx.a(sensors.o)
                                                  contiki-srf06-cc26xx.a(reed-relay.o)
                                                  contiki-srf06-cc26xx.a(button-sensor.o)
                                                  contiki-srf06-cc26xx.a(mpu-9250-sensor)
                                                  contiki-srf06-cc26xx.a(hdc-1000-sensor)
                                                  contiki-srf06-cc26xx.a(opt-3001-sensor)
                                                  contiki-srf06-cc26xx.a(tmp-007-sensor.)
                                                  contiki-srf06-cc26xx.a(bmp-280-sensor.)
sensors_event                                     contiki-srf06-cc26xx.a(sensors.o)
                                                  obj_srf06-cc26xx/mqtt-client.o
                                                  cc26xx-web-demo.co
sensors_find                                      contiki-srf06-cc26xx.a(sensors.o)
sensors_first                                     contiki-srf06-cc26xx.a(sensors.o)
sensors_flags                                     contiki-srf06-cc26xx.a(sensortag-senso)
                                                  contiki-srf06-cc26xx.a(sensors.o)
sensors_next                                      contiki-srf06-cc26xx.a(sensors.o)
sensors_process                                   contiki-srf06-cc26xx.a(sensors.o)
                                                  contiki-srf06-cc26xx.a(contiki-main.o)
serial_line_event_message                         contiki-srf06-cc26xx.a(serial-line.o)
                                                  obj_srf06-cc26xx/net-uart.o
serial_line_init                                  contiki-srf06-cc26xx.a(serial-line.o)
                                                  contiki-srf06-cc26xx.a(contiki-main.o)
serial_line_input_byte                            contiki-srf06-cc26xx.a(serial-line.o)
                                                  obj_srf06-cc26xx/net-uart.o
serial_line_process                               contiki-srf06-cc26xx.a(serial-line.o)
sicslowpan_driver                                 contiki-srf06-cc26xx.a(sicslowpan.o)
                                                  contiki-srf06-cc26xx.a(nullsec.o)
                                                  contiki-srf06-cc26xx.a(netstack.o)
                                                  contiki-srf06-cc26xx.a(contiki-main.o)
sicslowpan_get_last_rssi                          contiki-srf06-cc26xx.a(sicslowpan.o)
                                                  cc26xx-web-demo.co
sicslowpan_init                                   contiki-srf06-cc26xx.a(sicslowpan.o)
snprintf                                          contiki-srf06-cc26xx.a(dbg-snprintf.o)
                                                  contiki-srf06-cc26xx.a(er-coap-res-wel)
                                                  obj_srf06-cc26xx/httpd-simple.o
                                                  obj_srf06-cc26xx/mqtt-client.o
                                                  obj_srf06-cc26xx/res-net.o
                                                  obj_srf06-cc26xx/res-sensors.o
                                                  obj_srf06-cc26xx/res-device.o
                                                  cc26xx-web-demo.co
soc_rtc_get_next_trigger                          contiki-srf06-cc26xx.a(soc-rtc.o)
                                                  contiki-srf06-cc26xx.a(lpm.o)
soc_rtc_init                                      contiki-srf06-cc26xx.a(soc-rtc.o)
                                                  contiki-srf06-cc26xx.a(contiki-main.o)
soc_rtc_last_isr_time                             contiki-srf06-cc26xx.a(soc-rtc.o)
                                                  contiki-srf06-cc26xx.a(lpm.o)
soc_rtc_schedule_one_shot                         contiki-srf06-cc26xx.a(soc-rtc.o)
                                                  contiki-srf06-cc26xx.a(lpm.o)
                                                  contiki-srf06-cc26xx.a(rtimer-arch.o)
sprintf                                           contiki-srf06-cc26xx.a(dbg-sprintf.o)
                                                  obj_srf06-cc26xx/cetic-6lbr-client.o
                                                  cc26xx-web-demo.co
srand                                             /home/paul/gcc-arm-none-eabi-5_2-2015q4/bin/../lib/gcc/arm-none-eabi/5.2.1/../../../../arm-none-eabi/lib/armv7-m/libc.a(lib_a-rand.o)
                                                  contiki-srf06-cc26xx.a(random.o)
stimer_elapsed                                    contiki-srf06-cc26xx.a(stimer.o)
stimer_expired                                    contiki-srf06-cc26xx.a(stimer.o)
                                                  contiki-srf06-cc26xx.a(uip-ds6-route.o)
                                                  contiki-srf06-cc26xx.a(uip-ds6-nbr.o)
                                                  contiki-srf06-cc26xx.a(uip-ds6.o)
stimer_remaining                                  contiki-srf06-cc26xx.a(stimer.o)
                                                  contiki-srf06-cc26xx.a(uip-ds6-nbr.o)
stimer_reset                                      contiki-srf06-cc26xx.a(stimer.o)
stimer_restart                                    contiki-srf06-cc26xx.a(stimer.o)
stimer_set                                        contiki-srf06-cc26xx.a(stimer.o)
                                                  contiki-srf06-cc26xx.a(rpl-icmp6.o)
                                                  contiki-srf06-cc26xx.a(uip-ds6-route.o)
                                                  contiki-srf06-cc26xx.a(uip-ds6-nbr.o)
                                                  contiki-srf06-cc26xx.a(uip-ds6.o)
strchr                                            /home/paul/gcc-arm-none-eabi-5_2-2015q4/bin/../lib/gcc/arm-none-eabi/5.2.1/../../../../arm-none-eabi/lib/armv7-m/libc.a(lib_a-strchr.o)
                                                  contiki-srf06-cc26xx.a(er-coap.o)
strlen                                            /home/paul/gcc-arm-none-eabi-5_2-2015q4/bin/../lib/gcc/arm-none-eabi/5.2.1/../../../../arm-none-eabi/lib/armv7-m/libc.a(lib_a-strlen-stub.o)
                                                  contiki-srf06-cc26xx.a(er-coap.o)
                                                  contiki-srf06-cc26xx.a(tcp-socket.o)
                                                  contiki-srf06-cc26xx.a(rf-ble.o)
                                                  contiki-srf06-cc26xx.a(putchar.o)
                                                  contiki-srf06-cc26xx.a(sensors.o)
                                                  contiki-srf06-cc26xx.a(mqtt.o)
                                                  contiki-srf06-cc26xx.a(rest-engine.o)
                                                  contiki-srf06-cc26xx.a(er-coap-res-wel)
                                                  contiki-srf06-cc26xx.a(er-coap-observe)
                                                  contiki-srf06-cc26xx.a(er-coap-engine.)
                                                  obj_srf06-cc26xx/httpd-simple.o
                                                  obj_srf06-cc26xx/mqtt-client.o
                                                  obj_srf06-cc26xx/net-uart.o
                                                  obj_srf06-cc26xx/cetic-6lbr-client.o
                                                  obj_srf06-cc26xx/res-net.o
                                                  obj_srf06-cc26xx/res-ble-advd.o
                                                  obj_srf06-cc26xx/res-sensors.o
                                                  obj_srf06-cc26xx/res-device.o
                                                  cc26xx-web-demo.co
strncasecmp                                       /home/paul/gcc-arm-none-eabi-5_2-2015q4/bin/../lib/gcc/arm-none-eabi/5.2.1/../../../../arm-none-eabi/lib/armv7-m/libc.a(lib_a-strncasecmp.o)
                                                  obj_srf06-cc26xx/httpd-simple.o
                                                  obj_srf06-cc26xx/mqtt-client.o
                                                  obj_srf06-cc26xx/net-uart.o
                                                  cc26xx-web-demo.co
strncmp                                           /home/paul/gcc-arm-none-eabi-5_2-2015q4/bin/../lib/gcc/arm-none-eabi/5.2.1/../../../../arm-none-eabi/lib/armv7-m/libc.a(lib_a-strncmp.o)
                                                  contiki-srf06-cc26xx.a(er-coap.o)
                                                  contiki-srf06-cc26xx.a(sensors.o)
                                                  contiki-srf06-cc26xx.a(rest-engine.o)
                                                  contiki-srf06-cc26xx.a(er-coap-observe)
                                                  obj_srf06-cc26xx/httpd-simple.o
                                                  obj_srf06-cc26xx/mqtt-client.o
                                                  obj_srf06-cc26xx/res-ble-advd.o
                                                  obj_srf06-cc26xx/res-leds.o
                                                  cc26xx-web-demo.co
strncpy                                           /home/paul/gcc-arm-none-eabi-5_2-2015q4/bin/../lib/gcc/arm-none-eabi/5.2.1/../../../../arm-none-eabi/lib/armv7-m/libc.a(lib_a-strncpy.o)
                                                  contiki-srf06-cc26xx.a(er-coap-observe)
                                                  obj_srf06-cc26xx/httpd-simple.o
strtol                                            /home/paul/gcc-arm-none-eabi-5_2-2015q4/bin/../lib/gcc/arm-none-eabi/5.2.1/../../../../arm-none-eabi/lib/armv7-m/libc.a(lib_a-strtol.o)
                                                  /home/paul/gcc-arm-none-eabi-5_2-2015q4/bin/../lib/gcc/arm-none-eabi/5.2.1/../../../../arm-none-eabi/lib/armv7-m/libc.a(lib_a-atoi.o)
t0                                                contiki-srf06-cc26xx.a(mpu-9250-sensor)
tcp_attach                                        contiki-srf06-cc26xx.a(tcpip.o)
                                                  contiki-srf06-cc26xx.a(tcp-socket.o)
                                                  obj_srf06-cc26xx/httpd-simple.o
tcp_connect                                       contiki-srf06-cc26xx.a(tcpip.o)
                                                  contiki-srf06-cc26xx.a(tcp-socket.o)
tcp_listen                                        contiki-srf06-cc26xx.a(tcpip.o)
                                                  contiki-srf06-cc26xx.a(tcp-socket.o)
                                                  obj_srf06-cc26xx/httpd-simple.o
tcp_socket_close                                  contiki-srf06-cc26xx.a(tcp-socket.o)
                                                  contiki-srf06-cc26xx.a(mqtt.o)
tcp_socket_connect                                contiki-srf06-cc26xx.a(tcp-socket.o)
                                                  contiki-srf06-cc26xx.a(mqtt.o)
tcp_socket_listen                                 contiki-srf06-cc26xx.a(tcp-socket.o)
tcp_socket_max_sendlen                            contiki-srf06-cc26xx.a(tcp-socket.o)
tcp_socket_process                                contiki-srf06-cc26xx.a(tcp-socket.o)
tcp_socket_register                               contiki-srf06-cc26xx.a(tcp-socket.o)
                                                  contiki-srf06-cc26xx.a(mqtt.o)
tcp_socket_send                                   contiki-srf06-cc26xx.a(tcp-socket.o)
                                                  contiki-srf06-cc26xx.a(mqtt.o)
tcp_socket_send_str                               contiki-srf06-cc26xx.a(tcp-socket.o)
tcp_socket_unlisten                               contiki-srf06-cc26xx.a(tcp-socket.o)
tcp_socket_unregister                             contiki-srf06-cc26xx.a(tcp-socket.o)
                                                  contiki-srf06-cc26xx.a(mqtt.o)
tcp_unlisten                                      contiki-srf06-cc26xx.a(tcpip.o)
                                                  contiki-srf06-cc26xx.a(tcp-socket.o)
tcpip_event                                       contiki-srf06-cc26xx.a(tcpip.o)
                                                  contiki-srf06-cc26xx.a(tcp-socket.o)
                                                  contiki-srf06-cc26xx.a(er-coap-engine.)
                                                  obj_srf06-cc26xx/httpd-simple.o
                                                  obj_srf06-cc26xx/net-uart.o
                                                  obj_srf06-cc26xx/cetic-6lbr-client.o
tcpip_icmp6_call                                  contiki-srf06-cc26xx.a(tcpip.o)
                                                  contiki-srf06-cc26xx.a(uip6.o)
tcpip_icmp6_event                                 contiki-srf06-cc26xx.a(tcpip.o)
tcpip_input                                       contiki-srf06-cc26xx.a(tcpip.o)
                                                  contiki-srf06-cc26xx.a(sicslowpan.o)
tcpip_ipv6_output                                 contiki-srf06-cc26xx.a(tcpip.o)
                                                  contiki-srf06-cc26xx.a(uip-udp-packet.)
                                                  contiki-srf06-cc26xx.a(uip-icmp6.o)
tcpip_output                                      contiki-srf06-cc26xx.a(tcpip.o)
tcpip_poll_tcp                                    contiki-srf06-cc26xx.a(tcpip.o)
tcpip_poll_udp                                    contiki-srf06-cc26xx.a(tcpip.o)
tcpip_process                                     contiki-srf06-cc26xx.a(tcpip.o)
                                                  contiki-srf06-cc26xx.a(contiki-main.o)
tcpip_set_outputfunc                              contiki-srf06-cc26xx.a(tcpip.o)
                                                  contiki-srf06-cc26xx.a(sicslowpan.o)
tcpip_uipcall                                     contiki-srf06-cc26xx.a(tcpip.o)
                                                  contiki-srf06-cc26xx.a(uip6.o)
timer_expired                                     contiki-srf06-cc26xx.a(timer.o)
                                                  contiki-srf06-cc26xx.a(sicslowpan.o)
                                                  contiki-srf06-cc26xx.a(etimer.o)
                                                  contiki-srf06-cc26xx.a(reed-relay.o)
                                                  contiki-srf06-cc26xx.a(button-sensor.o)
                                                  contiki-srf06-cc26xx.a(mqtt.o)
                                                  obj_srf06-cc26xx/httpd-simple.o
                                                  obj_srf06-cc26xx/mqtt-client.o
timer_remaining                                   contiki-srf06-cc26xx.a(timer.o)
timer_reset                                       contiki-srf06-cc26xx.a(timer.o)
                                                  contiki-srf06-cc26xx.a(etimer.o)
timer_restart                                     contiki-srf06-cc26xx.a(timer.o)
                                                  contiki-srf06-cc26xx.a(etimer.o)
                                                  obj_srf06-cc26xx/httpd-simple.o
timer_set                                         contiki-srf06-cc26xx.a(timer.o)
                                                  contiki-srf06-cc26xx.a(sicslowpan.o)
                                                  contiki-srf06-cc26xx.a(etimer.o)
                                                  contiki-srf06-cc26xx.a(reed-relay.o)
                                                  contiki-srf06-cc26xx.a(button-sensor.o)
                                                  contiki-srf06-cc26xx.a(mqtt.o)
                                                  obj_srf06-cc26xx/httpd-simple.o
                                                  obj_srf06-cc26xx/mqtt-client.o
tmp_007_sensor                                    contiki-srf06-cc26xx.a(tmp-007-sensor.)
                                                  contiki-srf06-cc26xx.a(board.o)
                                                  contiki-srf06-cc26xx.a(sensortag-senso)
                                                  cc26xx-web-demo.co
tmp_amb_reading                                   cc26xx-web-demo.co
tmp_obj_reading                                   cc26xx-web-demo.co
tmp_timer                                         cc26xx-web-demo.co
trimDevice                                        contiki-srf06-cc26xx.a(setup.o)
                                                  obj_srf06-cc26xx/startup_gcc.o
tx_power_current                                  contiki-srf06-cc26xx.a(ieee-mode.o)
type_id_handler                                   obj_srf06-cc26xx/mqtt-client.o
uDMAErrIntHandler                                 obj_srf06-cc26xx/startup_gcc.o
uDMAIntHandler                                    obj_srf06-cc26xx/startup_gcc.o
udp_attach                                        contiki-srf06-cc26xx.a(tcpip.o)
udp_broadcast_new                                 contiki-srf06-cc26xx.a(tcpip.o)
udp_new                                           contiki-srf06-cc26xx.a(tcpip.o)
                                                  contiki-srf06-cc26xx.a(er-coap.o)
                                                  obj_srf06-cc26xx/net-uart.o
                                                  obj_srf06-cc26xx/cetic-6lbr-client.o
uip_acc32                                         contiki-srf06-cc26xx.a(uip6.o)
uip_add32                                         contiki-srf06-cc26xx.a(uip6.o)
uip_aligned_buf                                   contiki-srf06-cc26xx.a(uip6.o)
                                                  contiki-srf06-cc26xx.a(rpl-icmp6.o)
                                                  contiki-srf06-cc26xx.a(rpl-ext-header.)
                                                  contiki-srf06-cc26xx.a(uip-udp-packet.)
                                                  contiki-srf06-cc26xx.a(tcpip.o)
                                                  contiki-srf06-cc26xx.a(uip-nd6.o)
                                                  contiki-srf06-cc26xx.a(uip-icmp6.o)
                                                  contiki-srf06-cc26xx.a(sicslowpan.o)
                                                  contiki-srf06-cc26xx.a(er-coap-observe)
                                                  contiki-srf06-cc26xx.a(er-coap-engine.)
uip_appdata                                       contiki-srf06-cc26xx.a(uip6.o)
                                                  contiki-srf06-cc26xx.a(tcp-socket.o)
                                                  contiki-srf06-cc26xx.a(psock.o)
                                                  contiki-srf06-cc26xx.a(er-coap-engine.)
                                                  obj_srf06-cc26xx/net-uart.o
                                                  obj_srf06-cc26xx/cetic-6lbr-client.o
uip_chksum                                        contiki-srf06-cc26xx.a(uip6.o)
uip_conn                                          contiki-srf06-cc26xx.a(uip6.o)
                                                  contiki-srf06-cc26xx.a(tcp-socket.o)
                                                  contiki-srf06-cc26xx.a(tcpip.o)
                                                  contiki-srf06-cc26xx.a(psock.o)
                                                  obj_srf06-cc26xx/httpd-simple.o
uip_connect                                       contiki-srf06-cc26xx.a(uip6.o)
                                                  contiki-srf06-cc26xx.a(tcpip.o)
uip_conns                                         contiki-srf06-cc26xx.a(uip6.o)
                                                  contiki-srf06-cc26xx.a(tcpip.o)
uip_debug_ipaddr_print                            contiki-srf06-cc26xx.a(uip-debug.o)
                                                  contiki-srf06-cc26xx.a(uip-ds6-route.o)
uip_debug_lladdr_print                            contiki-srf06-cc26xx.a(uip-debug.o)
uip_ds6_aaddr_add                                 contiki-srf06-cc26xx.a(uip-ds6.o)
uip_ds6_aaddr_lookup                              contiki-srf06-cc26xx.a(uip-ds6.o)
uip_ds6_aaddr_rm                                  contiki-srf06-cc26xx.a(uip-ds6.o)
uip_ds6_addr_add                                  contiki-srf06-cc26xx.a(uip-ds6.o)
                                                  contiki-srf06-cc26xx.a(rpl-dag.o)
uip_ds6_addr_lookup                               contiki-srf06-cc26xx.a(uip-ds6.o)
                                                  contiki-srf06-cc26xx.a(rpl-dag.o)
                                                  contiki-srf06-cc26xx.a(uip-nd6.o)
                                                  contiki-srf06-cc26xx.a(uip6.o)
uip_ds6_addr_rm                                   contiki-srf06-cc26xx.a(uip-ds6.o)
                                                  contiki-srf06-cc26xx.a(rpl-dag.o)
uip_ds6_addr_size                                 contiki-srf06-cc26xx.a(uip-ds6.o)
uip_ds6_compute_reachable_time                    contiki-srf06-cc26xx.a(uip-ds6.o)
uip_ds6_defrt_add                                 contiki-srf06-cc26xx.a(uip-ds6-route.o)
                                                  contiki-srf06-cc26xx.a(rpl-dag.o)
uip_ds6_defrt_choose                              contiki-srf06-cc26xx.a(uip-ds6-route.o)
                                                  contiki-srf06-cc26xx.a(tcpip.o)
                                                  obj_srf06-cc26xx/httpd-simple.o
                                                  obj_srf06-cc26xx/mqtt-client.o
                                                  obj_srf06-cc26xx/res-net.o
                                                  cc26xx-web-demo.co
uip_ds6_defrt_lookup                              contiki-srf06-cc26xx.a(uip-ds6-route.o)
                                                  contiki-srf06-cc26xx.a(uip-ds6-nbr.o)
uip_ds6_defrt_periodic                            contiki-srf06-cc26xx.a(uip-ds6-route.o)
                                                  contiki-srf06-cc26xx.a(uip-ds6.o)
uip_ds6_defrt_rm                                  contiki-srf06-cc26xx.a(uip-ds6-route.o)
                                                  contiki-srf06-cc26xx.a(rpl-dag.o)
uip_ds6_get_global                                contiki-srf06-cc26xx.a(uip-ds6.o)
                                                  obj_srf06-cc26xx/mqtt-client.o
                                                  obj_srf06-cc26xx/cetic-6lbr-client.o
                                                  cc26xx-web-demo.co
uip_ds6_get_least_lifetime_neighbor               contiki-srf06-cc26xx.a(uip-ds6-nbr.o)
uip_ds6_get_link_local                            contiki-srf06-cc26xx.a(uip-ds6.o)
                                                  contiki-srf06-cc26xx.a(rpl-timers.o)
uip_ds6_if                                        contiki-srf06-cc26xx.a(uip-ds6.o)
                                                  contiki-srf06-cc26xx.a(rpl-icmp6.o)
                                                  contiki-srf06-cc26xx.a(uip-icmp6.o)
                                                  contiki-srf06-cc26xx.a(uip6.o)
uip_ds6_init                                      contiki-srf06-cc26xx.a(uip-ds6.o)
                                                  contiki-srf06-cc26xx.a(uip6.o)
uip_ds6_is_addr_onlink                            contiki-srf06-cc26xx.a(uip-ds6.o)
                                                  contiki-srf06-cc26xx.a(tcpip.o)
                                                  contiki-srf06-cc26xx.a(uip6.o)
uip_ds6_link_neighbor_callback                    contiki-srf06-cc26xx.a(uip-ds6-nbr.o)
                                                  contiki-srf06-cc26xx.a(sicslowpan.o)
uip_ds6_list_loop                                 contiki-srf06-cc26xx.a(uip-ds6.o)
uip_ds6_maddr_add                                 contiki-srf06-cc26xx.a(uip-ds6.o)
                                                  contiki-srf06-cc26xx.a(rpl.o)
uip_ds6_maddr_lookup                              contiki-srf06-cc26xx.a(uip-ds6.o)
                                                  contiki-srf06-cc26xx.a(uip6.o)
uip_ds6_maddr_rm                                  contiki-srf06-cc26xx.a(uip-ds6.o)
uip_ds6_nbr_add                                   contiki-srf06-cc26xx.a(uip-ds6-nbr.o)
                                                  contiki-srf06-cc26xx.a(rpl-icmp6.o)
uip_ds6_nbr_get_ipaddr                            contiki-srf06-cc26xx.a(uip-ds6-nbr.o)
uip_ds6_nbr_get_ll                                contiki-srf06-cc26xx.a(uip-ds6-nbr.o)
                                                  contiki-srf06-cc26xx.a(rpl-dag.o)
                                                  contiki-srf06-cc26xx.a(tcpip.o)
uip_ds6_nbr_ipaddr_from_lladdr                    contiki-srf06-cc26xx.a(uip-ds6-nbr.o)
                                                  contiki-srf06-cc26xx.a(rpl-dag.o)
                                                  contiki-srf06-cc26xx.a(uip-ds6-route.o)
uip_ds6_nbr_ll_lookup                             contiki-srf06-cc26xx.a(uip-ds6-nbr.o)
uip_ds6_nbr_lladdr_from_ipaddr                    contiki-srf06-cc26xx.a(uip-ds6-nbr.o)
                                                  contiki-srf06-cc26xx.a(rpl-dag.o)
                                                  contiki-srf06-cc26xx.a(uip-ds6-route.o)
uip_ds6_nbr_lookup                                contiki-srf06-cc26xx.a(uip-ds6-nbr.o)
                                                  contiki-srf06-cc26xx.a(rpl-icmp6.o)
                                                  contiki-srf06-cc26xx.a(rpl-dag.o)
                                                  contiki-srf06-cc26xx.a(tcpip.o)
                                                  contiki-srf06-cc26xx.a(uip-ds6-route.o)
uip_ds6_nbr_num                                   contiki-srf06-cc26xx.a(uip-ds6-nbr.o)
                                                  contiki-srf06-cc26xx.a(rpl-dag.o)
uip_ds6_nbr_rm                                    contiki-srf06-cc26xx.a(uip-ds6-nbr.o)
uip_ds6_neighbor_periodic                         contiki-srf06-cc26xx.a(uip-ds6-nbr.o)
                                                  contiki-srf06-cc26xx.a(uip-ds6.o)
uip_ds6_neighbors_init                            contiki-srf06-cc26xx.a(uip-ds6-nbr.o)
                                                  contiki-srf06-cc26xx.a(uip-ds6.o)
uip_ds6_netif_addr_list_offset                    contiki-srf06-cc26xx.a(uip-ds6.o)
uip_ds6_notification_add                          contiki-srf06-cc26xx.a(uip-ds6-route.o)
uip_ds6_notification_rm                           contiki-srf06-cc26xx.a(uip-ds6-route.o)
uip_ds6_periodic                                  contiki-srf06-cc26xx.a(uip-ds6.o)
                                                  contiki-srf06-cc26xx.a(tcpip.o)
uip_ds6_prefix_add                                contiki-srf06-cc26xx.a(uip-ds6.o)
uip_ds6_prefix_list                               contiki-srf06-cc26xx.a(uip-ds6.o)
uip_ds6_prefix_lookup                             contiki-srf06-cc26xx.a(uip-ds6.o)
uip_ds6_prefix_rm                                 contiki-srf06-cc26xx.a(uip-ds6.o)
uip_ds6_route_add                                 contiki-srf06-cc26xx.a(uip-ds6-route.o)
                                                  contiki-srf06-cc26xx.a(rpl.o)
uip_ds6_route_head                                contiki-srf06-cc26xx.a(uip-ds6-route.o)
                                                  contiki-srf06-cc26xx.a(rpl.o)
                                                  obj_srf06-cc26xx/httpd-simple.o
uip_ds6_route_init                                contiki-srf06-cc26xx.a(uip-ds6-route.o)
                                                  contiki-srf06-cc26xx.a(uip-ds6.o)
uip_ds6_route_lookup                              contiki-srf06-cc26xx.a(uip-ds6-route.o)
                                                  contiki-srf06-cc26xx.a(rpl-icmp6.o)
                                                  contiki-srf06-cc26xx.a(rpl-ext-header.)
                                                  contiki-srf06-cc26xx.a(tcpip.o)
uip_ds6_route_next                                contiki-srf06-cc26xx.a(uip-ds6-route.o)
                                                  contiki-srf06-cc26xx.a(rpl.o)
                                                  obj_srf06-cc26xx/httpd-simple.o
uip_ds6_route_nexthop                             contiki-srf06-cc26xx.a(uip-ds6-route.o)
                                                  contiki-srf06-cc26xx.a(rpl-icmp6.o)
                                                  contiki-srf06-cc26xx.a(rpl.o)
                                                  contiki-srf06-cc26xx.a(tcpip.o)
                                                  obj_srf06-cc26xx/httpd-simple.o
uip_ds6_route_num_routes                          contiki-srf06-cc26xx.a(uip-ds6-route.o)
uip_ds6_route_rm                                  contiki-srf06-cc26xx.a(uip-ds6-route.o)
                                                  contiki-srf06-cc26xx.a(rpl-ext-header.)
                                                  contiki-srf06-cc26xx.a(rpl.o)
                                                  contiki-srf06-cc26xx.a(tcpip.o)
uip_ds6_route_rm_by_nexthop                       contiki-srf06-cc26xx.a(uip-ds6-route.o)
uip_ds6_select_src                                contiki-srf06-cc26xx.a(uip-ds6.o)
                                                  contiki-srf06-cc26xx.a(uip-nd6.o)
                                                  contiki-srf06-cc26xx.a(uip-icmp6.o)
                                                  contiki-srf06-cc26xx.a(uip6.o)
uip_ds6_set_addr_iid                              contiki-srf06-cc26xx.a(uip-ds6.o)
                                                  contiki-srf06-cc26xx.a(rpl-dag.o)
                                                  contiki-srf06-cc26xx.a(rpl.o)
                                                  contiki-srf06-cc26xx.a(sicslowpan.o)
uip_ds6_timer_periodic                            contiki-srf06-cc26xx.a(uip-ds6.o)
                                                  contiki-srf06-cc26xx.a(tcpip.o)
uip_ds6_timer_ra                                  contiki-srf06-cc26xx.a(uip-ds6.o)
uip_ext_bitmap                                    contiki-srf06-cc26xx.a(uip6.o)
uip_ext_len                                       contiki-srf06-cc26xx.a(uip6.o)
                                                  contiki-srf06-cc26xx.a(rpl-icmp6.o)
                                                  contiki-srf06-cc26xx.a(rpl-ext-header.)
                                                  contiki-srf06-cc26xx.a(tcpip.o)
                                                  contiki-srf06-cc26xx.a(uip-nd6.o)
                                                  contiki-srf06-cc26xx.a(uip-icmp6.o)
                                                  contiki-srf06-cc26xx.a(er-coap-observe)
                                                  contiki-srf06-cc26xx.a(er-coap-engine.)
uip_ext_opt_offset                                contiki-srf06-cc26xx.a(uip6.o)
uip_flags                                         contiki-srf06-cc26xx.a(uip6.o)
                                                  contiki-srf06-cc26xx.a(tcp-socket.o)
                                                  contiki-srf06-cc26xx.a(tcpip.o)
                                                  contiki-srf06-cc26xx.a(psock.o)
                                                  contiki-srf06-cc26xx.a(er-coap-engine.)
                                                  obj_srf06-cc26xx/httpd-simple.o
                                                  obj_srf06-cc26xx/net-uart.o
                                                  obj_srf06-cc26xx/cetic-6lbr-client.o
uip_htonl                                         contiki-srf06-cc26xx.a(uip6.o)
                                                  contiki-srf06-cc26xx.a(uip-icmp6.o)
uip_htons                                         contiki-srf06-cc26xx.a(uip6.o)
                                                  contiki-srf06-cc26xx.a(tcp-socket.o)
uip_icmp6_conns                                   contiki-srf06-cc26xx.a(uip6.o)
                                                  contiki-srf06-cc26xx.a(tcpip.o)
uip_icmp6_echo_reply_callback_add                 contiki-srf06-cc26xx.a(uip-icmp6.o)
                                                  cc26xx-web-demo.co
uip_icmp6_echo_reply_callback_rm                  contiki-srf06-cc26xx.a(uip-icmp6.o)
uip_icmp6_error_output                            contiki-srf06-cc26xx.a(uip-icmp6.o)
                                                  contiki-srf06-cc26xx.a(uip6.o)
uip_icmp6_init                                    contiki-srf06-cc26xx.a(uip-icmp6.o)
                                                  contiki-srf06-cc26xx.a(uip6.o)
uip_icmp6_input                                   contiki-srf06-cc26xx.a(uip-icmp6.o)
                                                  contiki-srf06-cc26xx.a(uip6.o)
uip_icmp6_register_input_handler                  contiki-srf06-cc26xx.a(uip-icmp6.o)
                                                  contiki-srf06-cc26xx.a(rpl-icmp6.o)
uip_icmp6_send                                    contiki-srf06-cc26xx.a(uip-icmp6.o)
                                                  contiki-srf06-cc26xx.a(rpl-icmp6.o)
                                                  cc26xx-web-demo.co
uip_icmp6chksum                                   contiki-srf06-cc26xx.a(uip6.o)
                                                  contiki-srf06-cc26xx.a(uip-nd6.o)
                                                  contiki-srf06-cc26xx.a(uip-icmp6.o)
uip_init                                          contiki-srf06-cc26xx.a(uip6.o)
                                                  contiki-srf06-cc26xx.a(tcpip.o)
uip_ipchksum                                      contiki-srf06-cc26xx.a(uip6.o)
uip_len                                           contiki-srf06-cc26xx.a(uip6.o)
                                                  contiki-srf06-cc26xx.a(rpl-icmp6.o)
                                                  contiki-srf06-cc26xx.a(rpl-ext-header.)
                                                  contiki-srf06-cc26xx.a(tcp-socket.o)
                                                  contiki-srf06-cc26xx.a(tcpip.o)
                                                  contiki-srf06-cc26xx.a(psock.o)
                                                  contiki-srf06-cc26xx.a(uip-nd6.o)
                                                  contiki-srf06-cc26xx.a(uip-icmp6.o)
                                                  contiki-srf06-cc26xx.a(sicslowpan.o)
                                                  contiki-srf06-cc26xx.a(er-coap-engine.)
                                                  obj_srf06-cc26xx/net-uart.o
                                                  obj_srf06-cc26xx/cetic-6lbr-client.o
uip_listen                                        contiki-srf06-cc26xx.a(uip6.o)
                                                  contiki-srf06-cc26xx.a(tcpip.o)
uip_listenports                                   contiki-srf06-cc26xx.a(uip6.o)
uip_lladdr                                        contiki-srf06-cc26xx.a(uip6.o)
                                                  contiki-srf06-cc26xx.a(rpl-dag.o)
                                                  contiki-srf06-cc26xx.a(uip-nd6.o)
                                                  contiki-srf06-cc26xx.a(uip-ds6.o)
                                                  contiki-srf06-cc26xx.a(sicslowpan.o)
                                                  contiki-srf06-cc26xx.a(contiki-main.o)
uip_nd6_init                                      contiki-srf06-cc26xx.a(uip-nd6.o)
                                                  contiki-srf06-cc26xx.a(uip6.o)
uip_nd6_ns_output                                 contiki-srf06-cc26xx.a(uip-nd6.o)
uip_next_hdr                                      contiki-srf06-cc26xx.a(uip6.o)
uip_process                                       contiki-srf06-cc26xx.a(uip6.o)
                                                  contiki-srf06-cc26xx.a(uip-udp-packet.)
                                                  contiki-srf06-cc26xx.a(tcpip.o)
uip_sappdata                                      contiki-srf06-cc26xx.a(uip6.o)
uip_send                                          contiki-srf06-cc26xx.a(uip6.o)
                                                  contiki-srf06-cc26xx.a(tcp-socket.o)
                                                  contiki-srf06-cc26xx.a(psock.o)
uip_slen                                          contiki-srf06-cc26xx.a(uip6.o)
                                                  contiki-srf06-cc26xx.a(uip-udp-packet.)
uip_tcpchksum                                     contiki-srf06-cc26xx.a(uip6.o)
uip_udp_conn                                      contiki-srf06-cc26xx.a(uip6.o)
                                                  contiki-srf06-cc26xx.a(uip-udp-packet.)
                                                  contiki-srf06-cc26xx.a(tcpip.o)
uip_udp_conns                                     contiki-srf06-cc26xx.a(uip6.o)
                                                  contiki-srf06-cc26xx.a(tcpip.o)
uip_udp_new                                       contiki-srf06-cc26xx.a(uip6.o)
                                                  contiki-srf06-cc26xx.a(tcpip.o)
uip_udp_packet_send                               contiki-srf06-cc26xx.a(uip-udp-packet.)
                                                  contiki-srf06-cc26xx.a(er-coap.o)
                                                  obj_srf06-cc26xx/cetic-6lbr-client.o
uip_udp_packet_sendto                             contiki-srf06-cc26xx.a(uip-udp-packet.)
                                                  obj_srf06-cc26xx/net-uart.o
uip_udpchksum                                     contiki-srf06-cc26xx.a(uip6.o)
uip_unlisten                                      contiki-srf06-cc26xx.a(uip6.o)
                                                  contiki-srf06-cc26xx.a(tcpip.o)
uiplib_ip4addrconv                                contiki-srf06-cc26xx.a(uiplib.o)
uiplib_ip6addrconv                                contiki-srf06-cc26xx.a(uiplib.o)
                                                  contiki-srf06-cc26xx.a(mqtt.o)
                                                  obj_srf06-cc26xx/net-uart.o
unc_ctxconf                                       contiki-srf06-cc26xx.a(sicslowpan.o)
unc_llconf                                        contiki-srf06-cc26xx.a(sicslowpan.o)
unc_mxconf                                        contiki-srf06-cc26xx.a(sicslowpan.o)
vsnprintf                                         contiki-srf06-cc26xx.a(dbg-snprintf.o)
                                                  obj_srf06-cc26xx/httpd-simple.o
watchdog_init                                     contiki-srf06-cc26xx.a(contiki-watchdo)
                                                  contiki-srf06-cc26xx.a(contiki-main.o)
watchdog_periodic                                 contiki-srf06-cc26xx.a(contiki-watchdo)
                                                  contiki-srf06-cc26xx.a(rf-core.o)
                                                  contiki-srf06-cc26xx.a(contikimac.o)
                                                  contiki-srf06-cc26xx.a(sicslowpan.o)
                                                  contiki-srf06-cc26xx.a(lpm.o)
                                                  contiki-srf06-cc26xx.a(contiki-main.o)
watchdog_reboot                                   contiki-srf06-cc26xx.a(contiki-watchdo)
watchdog_start                                    contiki-srf06-cc26xx.a(contiki-watchdo)
                                                  contiki-srf06-cc26xx.a(contiki-main.o)
watchdog_stop                                     contiki-srf06-cc26xx.a(contiki-watchdo)
well_known_core_get_handler                       contiki-srf06-cc26xx.a(er-coap-res-wel)
